Archive member included to satisfy reference by file (symbol)

C:/devkitPro/libnds/lib\libdswifi7.a(wifi_arm7.o)
                              arm7.o (Wifi_Update)
C:/devkitPro/libnds/lib\libdswifi7.a(spinlock.o)
                              C:/devkitPro/libnds/lib\libdswifi7.a(wifi_arm7.o) (SLasm_Acquire)
C:/devkitPro/libnds/lib\libmm7.a(mm_main_ds.o)
                              arm7.o (mmInstall)
C:/devkitPro/libnds/lib\libmm7.a(mm_mas.o)
                              C:/devkitPro/libnds/lib\libmm7.a(mm_main_ds.o) (mm_achannels)
C:/devkitPro/libnds/lib\libmm7.a(mm_main.o)
                              C:/devkitPro/libnds/lib\libmm7.a(mm_mas.o) (mmCallback)
C:/devkitPro/libnds/lib\libmm7.a(mm_effect.o)
                              C:/devkitPro/libnds/lib\libmm7.a(mm_main_ds.o) (mmResetEffects)
C:/devkitPro/libnds/lib\libmm7.a(mm_mas_arm.o)
                              C:/devkitPro/libnds/lib\libmm7.a(mm_mas.o) (mmAllocChannel)
C:/devkitPro/libnds/lib\libmm7.a(mm_mixer_super.o)
                              C:/devkitPro/libnds/lib\libmm7.a(mm_main_ds.o) (mm_mix_channels)
C:/devkitPro/libnds/lib\libmm7.a(mm_comms7.o)
                              C:/devkitPro/libnds/lib\libmm7.a(mm_main_ds.o) (mmSetupComms)
C:/devkitPro/libnds/lib\libmm7.a(mm_stream.o)
                              C:/devkitPro/libnds/lib\libmm7.a(mm_comms7.o) (mmStreamBegin)
C:/devkitPro/libnds/lib\libmm7.a(mm_reverb.o)
                              C:/devkitPro/libnds/lib\libmm7.a(mm_comms7.o) (mmReverbEnable)
C:/devkitPro/libnds/lib\libnds7.a(system.o)
                              arm7.o (installSystemFIFO)
C:/devkitPro/libnds/lib\libnds7.a(touch.o)
                              arm7.o (touchInit)
C:/devkitPro/libnds/lib\libnds7.a(clock.o)
                              C:/devkitPro/libnds/lib\libnds7.a(system.o) (resyncClock)
C:/devkitPro/libnds/lib\libnds7.a(codec.twl.o)
                              C:/devkitPro/libnds/lib\libnds7.a(touch.o) (cdcTouchInit)
C:/devkitPro/libnds/lib\libnds7.a(audio.o)
                              arm7.o (installSoundFIFO)
C:/devkitPro/libnds/lib\libnds7.a(spi.o)
                              C:/devkitPro/libnds/lib\libnds7.a(system.o) (writePowerManagement)
C:/devkitPro/libnds/lib\libnds7.a(firmware.o)
                              C:/devkitPro/libnds/lib\libdswifi7.a(wifi_arm7.o) (readFirmware)
C:/devkitPro/libnds/lib\libnds7.a(userSettings.o)
                              arm7.o (readUserSettings)
C:/devkitPro/libnds/lib\libnds7.a(card.twl.o)
                              C:/devkitPro/libnds/lib\libnds7.a(system.o) (twlEnableSlot1)
C:/devkitPro/libnds/lib\libnds7.a(input.o)
                              arm7.o (inputGetAndSend)
C:/devkitPro/libnds/lib\libnds7.a(interrupts.o)
                              arm7.o (setPowerButtonCB)
C:/devkitPro/libnds/lib\libnds7.a(libnds_exit.arm.o)
                              C:/devkitPro/devkitARM/bin/../lib/gcc/arm-none-eabi/14.1.0/../../../../arm-none-eabi/lib/ds_arm7_crt0.o (__libnds_exit)
C:/devkitPro/libnds/lib\libnds7.a(fifosystem.o)
                              arm7.o (fifoSendValue32)
C:/devkitPro/libnds/lib\libnds7.a(intrwait.o)
                              arm7.o (swiWaitForVBlank)
C:/devkitPro/libnds/lib\libnds7.a(interruptDispatcher.o)
                              C:/devkitPro/libnds/lib\libnds7.a(interrupts.o) (IntrMain)
C:/devkitPro/libnds/lib\libnds7.a(biosCalls.o)
                              arm7.o (swiDelay)
C:/devkitPro/libnds/lib\libnds7.a(swiSoftReset.o)
                              C:/devkitPro/libnds/lib\libnds7.a(fifosystem.o) (swiSoftReset)
C:/devkitPro/libnds/lib\libnds7.a(i2c.twl.o)
                              C:/devkitPro/libnds/lib\libnds7.a(interrupts.o) (i2cWriteRegister)
C:/devkitPro/libnds/lib\libnds7.a(sdmmc.twl.o)
                              C:/devkitPro/libnds/lib\libnds7.a(system.o) (sdmmcMsgHandler)
C:/devkitPro/libnds/lib\libnds7.a(microphone.o)
                              C:/devkitPro/libnds/lib\libnds7.a(audio.o) (micStartRecording)
C:/devkitPro/libnds/lib\libnds7.a(microphone.twl.o)
                              C:/devkitPro/libnds/lib\libnds7.a(microphone.o) (micSetAmp_TWL)
C:/devkitPro/libnds/lib\libnds7.a(systemShutDown.o)
                              C:/devkitPro/libnds/lib\libnds7.a(libnds_exit.arm.o) (systemShutDown)
C:\devkitPro\libcamera/lib\libcamera7.a(cam7.o)
                              arm7.o (camSetupDefault)
C:\devkitPro\libcamera/lib\libcamera7.a(cam_ops.o)
                              C:\devkitPro\libcamera/lib\libcamera7.a(cam7.o) (aptinaInit)
C:\devkitPro\libcamera/lib\libcamera7.a(cam_i2c.o)
                              C:\devkitPro\libcamera/lib\libcamera7.a(cam_ops.o) (writeI2C)
C:/devkitPro/devkitARM/bin/../lib/gcc/arm-none-eabi/14.1.0\libgcc.a(_thumb1_case_uqi.o)
                              C:/devkitPro/libnds/lib\libnds7.a(sdmmc.twl.o) (__gnu_thumb1_case_uqi)
C:/devkitPro/devkitARM/bin/../lib/gcc/arm-none-eabi/14.1.0\libgcc.a(_udivsi3.o)
                              C:/devkitPro/libnds/lib\libnds7.a(clock.o) (__aeabi_uidiv)
C:/devkitPro/devkitARM/bin/../lib/gcc/arm-none-eabi/14.1.0\libgcc.a(_divsi3.o)
                              C:/devkitPro/libnds/lib\libnds7.a(touch.o) (__aeabi_idiv)
C:/devkitPro/devkitARM/bin/../lib/gcc/arm-none-eabi/14.1.0\libgcc.a(_dvmd_tls.o)
                              C:/devkitPro/devkitARM/bin/../lib/gcc/arm-none-eabi/14.1.0\libgcc.a(_udivsi3.o) (__aeabi_idiv0)
C:/devkitPro/devkitARM/bin/../lib/gcc/arm-none-eabi/14.1.0\libgcc.a(_call_via_rX.o)
                              C:/devkitPro/libnds/lib\libmm7.a(mm_comms7.o) (_call_via_r1)
C:/devkitPro/devkitARM/bin/../lib/gcc/arm-none-eabi/14.1.0\libgcc.a(_sync_none.o)
                              (__sync_synchronize_none)
C:/devkitPro/devkitARM/bin/../lib/gcc/arm-none-eabi/14.1.0/../../../../arm-none-eabi/lib\libg.a(libc_a-memcmp.o)
                              C:/devkitPro/libnds/lib\libnds7.a(firmware.o) (memcmp)
C:/devkitPro/devkitARM/bin/../lib/gcc/arm-none-eabi/14.1.0/../../../../arm-none-eabi/lib\libg.a(libc_a-memcpy-stub.o)
                              C:/devkitPro/libnds/lib\libnds7.a(clock.o) (memcpy)
C:/devkitPro/devkitARM/bin/../lib/gcc/arm-none-eabi/14.1.0/../../../../arm-none-eabi/lib\libg.a(libc_a-memset.o)
                              C:/devkitPro/libnds/lib\libnds7.a(input.o) (memset)
C:/devkitPro/devkitARM/bin/../lib/gcc/arm-none-eabi/14.1.0/../../../../arm-none-eabi/lib\libg.a(libc_a-init.o)
                              C:/devkitPro/devkitARM/bin/../lib/gcc/arm-none-eabi/14.1.0/../../../../arm-none-eabi/lib/ds_arm7_crt0.o (__libc_init_array)

Allocating common symbols
Common symbol       size              file

arm7q               0x800             C:/devkitPro/libnds/lib\libdswifi7.a(wifi_arm7.o)
FlashData           0x200             C:/devkitPro/libnds/lib\libdswifi7.a(wifi_arm7.o)
beacon_channel      0x2               C:/devkitPro/libnds/lib\libdswifi7.a(wifi_arm7.o)

Discarded input sections

 .text          0x00000000        0x0 C:/devkitPro/devkitARM/bin/../lib/gcc/arm-none-eabi/14.1.0/../../../../arm-none-eabi/lib/ds_arm7_crt0.o
 .data          0x00000000        0x0 C:/devkitPro/devkitARM/bin/../lib/gcc/arm-none-eabi/14.1.0/../../../../arm-none-eabi/lib/ds_arm7_crt0.o
 .bss           0x00000000        0x0 C:/devkitPro/devkitARM/bin/../lib/gcc/arm-none-eabi/14.1.0/../../../../arm-none-eabi/lib/ds_arm7_crt0.o
 .text          0x00000000        0x0 C:/devkitPro/devkitARM/bin/../lib/gcc/arm-none-eabi/14.1.0/crti.o
 .data          0x00000000        0x0 C:/devkitPro/devkitARM/bin/../lib/gcc/arm-none-eabi/14.1.0/crti.o
 .bss           0x00000000        0x0 C:/devkitPro/devkitARM/bin/../lib/gcc/arm-none-eabi/14.1.0/crti.o
 .text          0x00000000        0x0 C:/devkitPro/devkitARM/bin/../lib/gcc/arm-none-eabi/14.1.0/crtbegin.o
 .data          0x00000000        0x0 C:/devkitPro/devkitARM/bin/../lib/gcc/arm-none-eabi/14.1.0/crtbegin.o
 .bss           0x00000000        0x0 C:/devkitPro/devkitARM/bin/../lib/gcc/arm-none-eabi/14.1.0/crtbegin.o
 .rodata.all_implied_fbits
                0x00000000       0x24 C:/devkitPro/devkitARM/bin/../lib/gcc/arm-none-eabi/14.1.0/crtbegin.o
 .data.__dso_handle
                0x00000000        0x4 C:/devkitPro/devkitARM/bin/../lib/gcc/arm-none-eabi/14.1.0/crtbegin.o
 .data          0x00000000        0x0 arm7.o
 .text          0x00000000        0x0 C:/devkitPro/libnds/lib\libdswifi7.a(wifi_arm7.o)
 .data          0x00000000        0x0 C:/devkitPro/libnds/lib\libdswifi7.a(wifi_arm7.o)
 .bss           0x00000000        0x0 C:/devkitPro/libnds/lib\libdswifi7.a(wifi_arm7.o)
 .text.ReadFlashByte
                0x00000000       0x18 C:/devkitPro/libnds/lib\libdswifi7.a(wifi_arm7.o)
 .text.Wifi_TxSetup
                0x00000000       0x14 C:/devkitPro/libnds/lib\libdswifi7.a(wifi_arm7.o)
 .text.Wifi_CopyMacAddr
                0x00000000       0x1c C:/devkitPro/libnds/lib\libdswifi7.a(wifi_arm7.o)
 .text.Wifi_Intr_DoNothing
                0x00000000        0x4 C:/devkitPro/libnds/lib\libdswifi7.a(wifi_arm7.o)
 .text.erasemem
                0x00000000       0x1c C:/devkitPro/libnds/lib\libdswifi7.a(wifi_arm7.o)
 .text.Wifi_Deinit
                0x00000000       0x2c C:/devkitPro/libnds/lib\libdswifi7.a(wifi_arm7.o)
 .text.Wifi_SetBeaconPeriod
                0x00000000       0x1c C:/devkitPro/libnds/lib\libdswifi7.a(wifi_arm7.o)
 .text.Wifi_SetMode
                0x00000000       0x28 C:/devkitPro/libnds/lib\libdswifi7.a(wifi_arm7.o)
 .text.Wifi_SetPreambleType
                0x00000000       0x2c C:/devkitPro/libnds/lib\libdswifi7.a(wifi_arm7.o)
 .text.Wifi_SendPSPollFrame
                0x00000000       0x94 C:/devkitPro/libnds/lib\libdswifi7.a(wifi_arm7.o)
 .text.Wifi_Sync
                0x00000000        0x4 C:/devkitPro/libnds/lib\libdswifi7.a(wifi_arm7.o)
 .text.Wifi_SetSyncHandler
                0x00000000       0x10 C:/devkitPro/libnds/lib\libdswifi7.a(wifi_arm7.o)
 .data          0x00000000        0x0 C:/devkitPro/libnds/lib\libdswifi7.a(spinlock.o)
 .bss           0x00000000        0x0 C:/devkitPro/libnds/lib\libdswifi7.a(spinlock.o)
 .data          0x00000000        0x0 C:/devkitPro/libnds/lib\libmm7.a(mm_main_ds.o)
 .data          0x00000000        0x0 C:/devkitPro/libnds/lib\libmm7.a(mm_mas.o)
 .data          0x00000000        0x0 C:/devkitPro/libnds/lib\libmm7.a(mm_main.o)
 .data          0x00000000        0x0 C:/devkitPro/libnds/lib\libmm7.a(mm_effect.o)
 .data          0x00000000        0x0 C:/devkitPro/libnds/lib\libmm7.a(mm_mas_arm.o)
 .bss           0x00000000        0x0 C:/devkitPro/libnds/lib\libmm7.a(mm_mas_arm.o)
 .data          0x00000000        0x0 C:/devkitPro/libnds/lib\libmm7.a(mm_mixer_super.o)
 .data          0x00000000        0x0 C:/devkitPro/libnds/lib\libmm7.a(mm_comms7.o)
 .data          0x00000000        0x0 C:/devkitPro/libnds/lib\libmm7.a(mm_stream.o)
 .data          0x00000000        0x0 C:/devkitPro/libnds/lib\libmm7.a(mm_reverb.o)
 .text          0x00000000        0x0 C:/devkitPro/libnds/lib\libnds7.a(system.o)
 .data          0x00000000        0x0 C:/devkitPro/libnds/lib\libnds7.a(system.o)
 .bss           0x00000000        0x0 C:/devkitPro/libnds/lib\libnds7.a(system.o)
 .text.sleepEnabled
                0x00000000        0xc C:/devkitPro/libnds/lib\libnds7.a(system.o)
 .text          0x00000000        0x0 C:/devkitPro/libnds/lib\libnds7.a(touch.o)
 .data          0x00000000        0x0 C:/devkitPro/libnds/lib\libnds7.a(touch.o)
 .bss           0x00000000        0x0 C:/devkitPro/libnds/lib\libnds7.a(touch.o)
 .text.touchRead
                0x00000000       0x68 C:/devkitPro/libnds/lib\libnds7.a(touch.o)
 .text.touchReadTemperature
                0x00000000       0x30 C:/devkitPro/libnds/lib\libnds7.a(touch.o)
 .text          0x00000000        0x0 C:/devkitPro/libnds/lib\libnds7.a(clock.o)
 .data          0x00000000        0x0 C:/devkitPro/libnds/lib\libnds7.a(clock.o)
 .bss           0x00000000        0x0 C:/devkitPro/libnds/lib\libnds7.a(clock.o)
 .text.integerToBCD
                0x00000000       0x2a C:/devkitPro/libnds/lib\libnds7.a(clock.o)
 .text.rtcSetTimeAndDate
                0x00000000       0x26 C:/devkitPro/libnds/lib\libnds7.a(clock.o)
 .text.rtcGetTime
                0x00000000       0x4a C:/devkitPro/libnds/lib\libnds7.a(clock.o)
 .text.rtcSetTime
                0x00000000       0x26 C:/devkitPro/libnds/lib\libnds7.a(clock.o)
 .text          0x00000000        0x0 C:/devkitPro/libnds/lib\libnds7.a(codec.twl.o)
 .data          0x00000000        0x0 C:/devkitPro/libnds/lib\libnds7.a(codec.twl.o)
 .bss           0x00000000        0x0 C:/devkitPro/libnds/lib\libnds7.a(codec.twl.o)
 .text.cdcWriteRegArray
                0x00000000       0x74 C:/devkitPro/libnds/lib\libnds7.a(codec.twl.o)
 .text          0x00000000        0x0 C:/devkitPro/libnds/lib\libnds7.a(audio.o)
 .data          0x00000000        0x0 C:/devkitPro/libnds/lib\libnds7.a(audio.o)
 .bss           0x00000000        0x0 C:/devkitPro/libnds/lib\libnds7.a(audio.o)
 .text          0x00000000        0x0 C:/devkitPro/libnds/lib\libnds7.a(spi.o)
 .data          0x00000000        0x0 C:/devkitPro/libnds/lib\libnds7.a(spi.o)
 .bss           0x00000000        0x0 C:/devkitPro/libnds/lib\libnds7.a(spi.o)
 .text          0x00000000        0x0 C:/devkitPro/libnds/lib\libnds7.a(firmware.o)
 .data          0x00000000        0x0 C:/devkitPro/libnds/lib\libnds7.a(firmware.o)
 .bss           0x00000000        0x0 C:/devkitPro/libnds/lib\libnds7.a(firmware.o)
 .text          0x00000000        0x0 C:/devkitPro/libnds/lib\libnds7.a(userSettings.o)
 .data          0x00000000        0x0 C:/devkitPro/libnds/lib\libnds7.a(userSettings.o)
 .bss           0x00000000        0x0 C:/devkitPro/libnds/lib\libnds7.a(userSettings.o)
 .text          0x00000000        0x0 C:/devkitPro/libnds/lib\libnds7.a(card.twl.o)
 .data          0x00000000        0x0 C:/devkitPro/libnds/lib\libnds7.a(card.twl.o)
 .bss           0x00000000        0x0 C:/devkitPro/libnds/lib\libnds7.a(card.twl.o)
 .text          0x00000000        0x0 C:/devkitPro/libnds/lib\libnds7.a(input.o)
 .data          0x00000000        0x0 C:/devkitPro/libnds/lib\libnds7.a(input.o)
 .bss           0x00000000        0x0 C:/devkitPro/libnds/lib\libnds7.a(input.o)
 .bss.Keys      0x00000000        0x1 C:/devkitPro/libnds/lib\libnds7.a(input.o)
 .text          0x00000000        0x0 C:/devkitPro/libnds/lib\libnds7.a(interrupts.o)
 .data          0x00000000        0x0 C:/devkitPro/libnds/lib\libnds7.a(interrupts.o)
 .bss           0x00000000        0x0 C:/devkitPro/libnds/lib\libnds7.a(interrupts.o)
 .text.irqClear
                0x00000000       0x28 C:/devkitPro/libnds/lib\libnds7.a(interrupts.o)
 .text          0x00000000        0x0 C:/devkitPro/libnds/lib\libnds7.a(libnds_exit.arm.o)
 .data          0x00000000        0x0 C:/devkitPro/libnds/lib\libnds7.a(libnds_exit.arm.o)
 .bss           0x00000000        0x0 C:/devkitPro/libnds/lib\libnds7.a(libnds_exit.arm.o)
 .text          0x00000000        0x0 C:/devkitPro/libnds/lib\libnds7.a(fifosystem.o)
 .data          0x00000000        0x0 C:/devkitPro/libnds/lib\libnds7.a(fifosystem.o)
 .bss           0x00000000        0x0 C:/devkitPro/libnds/lib\libnds7.a(fifosystem.o)
 .text.fifoSendAddress
                0x00000000       0x2e C:/devkitPro/libnds/lib\libnds7.a(fifosystem.o)
 .text.fifoCheckDatamsgLength
                0x00000000       0x34 C:/devkitPro/libnds/lib\libnds7.a(fifosystem.o)
 .text          0x00000000        0x0 C:/devkitPro/libnds/lib\libnds7.a(intrwait.o)
 .data          0x00000000        0x0 C:/devkitPro/libnds/lib\libnds7.a(intrwait.o)
 .bss           0x00000000        0x0 C:/devkitPro/libnds/lib\libnds7.a(intrwait.o)
 .data          0x00000000        0x0 C:/devkitPro/libnds/lib\libnds7.a(interruptDispatcher.o)
 .bss           0x00000000        0x0 C:/devkitPro/libnds/lib\libnds7.a(interruptDispatcher.o)
 .text          0x00000000        0x0 C:/devkitPro/libnds/lib\libnds7.a(biosCalls.o)
 .data          0x00000000        0x0 C:/devkitPro/libnds/lib\libnds7.a(biosCalls.o)
 .bss           0x00000000        0x0 C:/devkitPro/libnds/lib\libnds7.a(biosCalls.o)
 .text.swiDivide
                0x00000000        0x4 C:/devkitPro/libnds/lib\libnds7.a(biosCalls.o)
 .text.swiRemainder
                0x00000000        0x8 C:/devkitPro/libnds/lib\libnds7.a(biosCalls.o)
 .text.swiDivMod
                0x00000000        0xc C:/devkitPro/libnds/lib\libnds7.a(biosCalls.o)
 .text.swiCopy  0x00000000        0x4 C:/devkitPro/libnds/lib\libnds7.a(biosCalls.o)
 .text.swiFastCopy
                0x00000000        0x4 C:/devkitPro/libnds/lib\libnds7.a(biosCalls.o)
 .text.swiSqrt  0x00000000        0x4 C:/devkitPro/libnds/lib\libnds7.a(biosCalls.o)
 .text.swiIsDebugger
                0x00000000        0x4 C:/devkitPro/libnds/lib\libnds7.a(biosCalls.o)
 .text.swiUnpackBits
                0x00000000        0x4 C:/devkitPro/libnds/lib\libnds7.a(biosCalls.o)
 .text.swiDecompressLZSSWram
                0x00000000        0x4 C:/devkitPro/libnds/lib\libnds7.a(biosCalls.o)
 .text.swiDecompressLZSSVramNTR
                0x00000000        0x4 C:/devkitPro/libnds/lib\libnds7.a(biosCalls.o)
 .text.swiDecompressLZSSVramTWL
                0x00000000        0x4 C:/devkitPro/libnds/lib\libnds7.a(biosCalls.o)
 .text.swiDecompressHuffman
                0x00000000        0x4 C:/devkitPro/libnds/lib\libnds7.a(biosCalls.o)
 .text.swiDecompressRLEWram
                0x00000000        0x4 C:/devkitPro/libnds/lib\libnds7.a(biosCalls.o)
 .text.swiDecompressRLEVram
                0x00000000        0x4 C:/devkitPro/libnds/lib\libnds7.a(biosCalls.o)
 .text.swiHalt  0x00000000        0x4 C:/devkitPro/libnds/lib\libnds7.a(biosCalls.o)
 .text.swiGetSineTable
                0x00000000        0x4 C:/devkitPro/libnds/lib\libnds7.a(biosCalls.o)
 .text.swiGetPitchTable
                0x00000000        0x4 C:/devkitPro/libnds/lib\libnds7.a(biosCalls.o)
 .text.swiGetVolumeTable
                0x00000000        0x4 C:/devkitPro/libnds/lib\libnds7.a(biosCalls.o)
 .text.swiSwitchToGBAMode
                0x00000000        0x4 C:/devkitPro/libnds/lib\libnds7.a(biosCalls.o)
 .text.swiSetHaltCR
                0x00000000        0x8 C:/devkitPro/libnds/lib\libnds7.a(biosCalls.o)
 .text          0x00000000        0x0 C:/devkitPro/libnds/lib\libnds7.a(swiSoftReset.o)
 .data          0x00000000        0x0 C:/devkitPro/libnds/lib\libnds7.a(swiSoftReset.o)
 .bss           0x00000000        0x0 C:/devkitPro/libnds/lib\libnds7.a(swiSoftReset.o)
 .text          0x00000000        0x0 C:/devkitPro/libnds/lib\libnds7.a(i2c.twl.o)
 .data          0x00000000        0x0 C:/devkitPro/libnds/lib\libnds7.a(i2c.twl.o)
 .bss           0x00000000        0x0 C:/devkitPro/libnds/lib\libnds7.a(i2c.twl.o)
 .text.i2cGetData
                0x00000000       0x14 C:/devkitPro/libnds/lib\libnds7.a(i2c.twl.o)
 .text          0x00000000        0x0 C:/devkitPro/libnds/lib\libnds7.a(sdmmc.twl.o)
 .data          0x00000000        0x0 C:/devkitPro/libnds/lib\libnds7.a(sdmmc.twl.o)
 .bss           0x00000000        0x0 C:/devkitPro/libnds/lib\libnds7.a(sdmmc.twl.o)
 .text.geterror
                0x00000000        0x8 C:/devkitPro/libnds/lib\libnds7.a(sdmmc.twl.o)
 .text.sdmmc_cardinserted
                0x00000000        0x4 C:/devkitPro/libnds/lib\libnds7.a(sdmmc.twl.o)
 .text.sdmmc_get_cid
                0x00000000       0x6c C:/devkitPro/libnds/lib\libnds7.a(sdmmc.twl.o)
 .text.sdmmc_sdcard_readsectors
                0x00000000       0x1c C:/devkitPro/libnds/lib\libnds7.a(sdmmc.twl.o)
 .text.sdmmc_sdcard_writesectors
                0x00000000       0x1c C:/devkitPro/libnds/lib\libnds7.a(sdmmc.twl.o)
 .text.sdmmc_nand_readsectors
                0x00000000       0x1c C:/devkitPro/libnds/lib\libnds7.a(sdmmc.twl.o)
 .text.sdmmc_nand_writesectors
                0x00000000       0x1c C:/devkitPro/libnds/lib\libnds7.a(sdmmc.twl.o)
 .text          0x00000000        0x0 C:/devkitPro/libnds/lib\libnds7.a(microphone.o)
 .data          0x00000000        0x0 C:/devkitPro/libnds/lib\libnds7.a(microphone.o)
 .bss           0x00000000        0x0 C:/devkitPro/libnds/lib\libnds7.a(microphone.o)
 .text          0x00000000        0x0 C:/devkitPro/libnds/lib\libnds7.a(microphone.twl.o)
 .data          0x00000000        0x0 C:/devkitPro/libnds/lib\libnds7.a(microphone.twl.o)
 .bss           0x00000000        0x0 C:/devkitPro/libnds/lib\libnds7.a(microphone.twl.o)
 .text          0x00000000        0x0 C:/devkitPro/libnds/lib\libnds7.a(systemShutDown.o)
 .data          0x00000000        0x0 C:/devkitPro/libnds/lib\libnds7.a(systemShutDown.o)
 .bss           0x00000000        0x0 C:/devkitPro/libnds/lib\libnds7.a(systemShutDown.o)
 .data          0x00000000        0x0 C:\devkitPro\libcamera/lib\libcamera7.a(cam7.o)
 .bss           0x00000000        0x0 C:\devkitPro\libcamera/lib\libcamera7.a(cam7.o)
 .data          0x00000000        0x0 C:\devkitPro\libcamera/lib\libcamera7.a(cam_ops.o)
 .data          0x00000000        0x0 C:\devkitPro\libcamera/lib\libcamera7.a(cam_i2c.o)
 .bss           0x00000000        0x0 C:\devkitPro\libcamera/lib\libcamera7.a(cam_i2c.o)
 .data          0x00000000        0x0 C:/devkitPro/devkitARM/bin/../lib/gcc/arm-none-eabi/14.1.0\libgcc.a(_thumb1_case_uqi.o)
 .bss           0x00000000        0x0 C:/devkitPro/devkitARM/bin/../lib/gcc/arm-none-eabi/14.1.0\libgcc.a(_thumb1_case_uqi.o)
 .data          0x00000000        0x0 C:/devkitPro/devkitARM/bin/../lib/gcc/arm-none-eabi/14.1.0\libgcc.a(_udivsi3.o)
 .bss           0x00000000        0x0 C:/devkitPro/devkitARM/bin/../lib/gcc/arm-none-eabi/14.1.0\libgcc.a(_udivsi3.o)
 .data          0x00000000        0x0 C:/devkitPro/devkitARM/bin/../lib/gcc/arm-none-eabi/14.1.0\libgcc.a(_divsi3.o)
 .bss           0x00000000        0x0 C:/devkitPro/devkitARM/bin/../lib/gcc/arm-none-eabi/14.1.0\libgcc.a(_divsi3.o)
 .data          0x00000000        0x0 C:/devkitPro/devkitARM/bin/../lib/gcc/arm-none-eabi/14.1.0\libgcc.a(_dvmd_tls.o)
 .bss           0x00000000        0x0 C:/devkitPro/devkitARM/bin/../lib/gcc/arm-none-eabi/14.1.0\libgcc.a(_dvmd_tls.o)
 .data          0x00000000        0x0 C:/devkitPro/devkitARM/bin/../lib/gcc/arm-none-eabi/14.1.0\libgcc.a(_call_via_rX.o)
 .bss           0x00000000        0x0 C:/devkitPro/devkitARM/bin/../lib/gcc/arm-none-eabi/14.1.0\libgcc.a(_call_via_rX.o)
 .text          0x00000000        0x4 C:/devkitPro/devkitARM/bin/../lib/gcc/arm-none-eabi/14.1.0\libgcc.a(_sync_none.o)
 .data          0x00000000        0x0 C:/devkitPro/devkitARM/bin/../lib/gcc/arm-none-eabi/14.1.0\libgcc.a(_sync_none.o)
 .bss           0x00000000        0x0 C:/devkitPro/devkitARM/bin/../lib/gcc/arm-none-eabi/14.1.0\libgcc.a(_sync_none.o)
 .ARM.attributes
                0x00000000       0x1c C:/devkitPro/devkitARM/bin/../lib/gcc/arm-none-eabi/14.1.0\libgcc.a(_sync_none.o)
 .text          0x00000000        0x0 C:/devkitPro/devkitARM/bin/../lib/gcc/arm-none-eabi/14.1.0/../../../../arm-none-eabi/lib\libg.a(libc_a-memcmp.o)
 .data          0x00000000        0x0 C:/devkitPro/devkitARM/bin/../lib/gcc/arm-none-eabi/14.1.0/../../../../arm-none-eabi/lib\libg.a(libc_a-memcmp.o)
 .bss           0x00000000        0x0 C:/devkitPro/devkitARM/bin/../lib/gcc/arm-none-eabi/14.1.0/../../../../arm-none-eabi/lib\libg.a(libc_a-memcmp.o)
 .text          0x00000000        0x0 C:/devkitPro/devkitARM/bin/../lib/gcc/arm-none-eabi/14.1.0/../../../../arm-none-eabi/lib\libg.a(libc_a-memcpy-stub.o)
 .data          0x00000000        0x0 C:/devkitPro/devkitARM/bin/../lib/gcc/arm-none-eabi/14.1.0/../../../../arm-none-eabi/lib\libg.a(libc_a-memcpy-stub.o)
 .bss           0x00000000        0x0 C:/devkitPro/devkitARM/bin/../lib/gcc/arm-none-eabi/14.1.0/../../../../arm-none-eabi/lib\libg.a(libc_a-memcpy-stub.o)
 .text          0x00000000        0x0 C:/devkitPro/devkitARM/bin/../lib/gcc/arm-none-eabi/14.1.0/../../../../arm-none-eabi/lib\libg.a(libc_a-memset.o)
 .data          0x00000000        0x0 C:/devkitPro/devkitARM/bin/../lib/gcc/arm-none-eabi/14.1.0/../../../../arm-none-eabi/lib\libg.a(libc_a-memset.o)
 .bss           0x00000000        0x0 C:/devkitPro/devkitARM/bin/../lib/gcc/arm-none-eabi/14.1.0/../../../../arm-none-eabi/lib\libg.a(libc_a-memset.o)
 .text          0x00000000        0x0 C:/devkitPro/devkitARM/bin/../lib/gcc/arm-none-eabi/14.1.0/../../../../arm-none-eabi/lib\libg.a(libc_a-init.o)
 .data          0x00000000        0x0 C:/devkitPro/devkitARM/bin/../lib/gcc/arm-none-eabi/14.1.0/../../../../arm-none-eabi/lib\libg.a(libc_a-init.o)
 .bss           0x00000000        0x0 C:/devkitPro/devkitARM/bin/../lib/gcc/arm-none-eabi/14.1.0/../../../../arm-none-eabi/lib\libg.a(libc_a-init.o)
 .text          0x00000000        0x0 C:/devkitPro/devkitARM/bin/../lib/gcc/arm-none-eabi/14.1.0/crtend.o
 .data          0x00000000        0x0 C:/devkitPro/devkitARM/bin/../lib/gcc/arm-none-eabi/14.1.0/crtend.o
 .bss           0x00000000        0x0 C:/devkitPro/devkitARM/bin/../lib/gcc/arm-none-eabi/14.1.0/crtend.o
 .rodata.all_implied_fbits
                0x00000000       0x24 C:/devkitPro/devkitARM/bin/../lib/gcc/arm-none-eabi/14.1.0/crtend.o
 .text          0x00000000        0x0 C:/devkitPro/devkitARM/bin/../lib/gcc/arm-none-eabi/14.1.0/crtn.o
 .data          0x00000000        0x0 C:/devkitPro/devkitARM/bin/../lib/gcc/arm-none-eabi/14.1.0/crtn.o
 .bss           0x00000000        0x0 C:/devkitPro/devkitARM/bin/../lib/gcc/arm-none-eabi/14.1.0/crtn.o

Memory Configuration

Name             Origin             Length             Attributes
ewram            0x02380000         0x00b80000
rom              0x08000000         0x02000000
iwram            0x037f8000         0x00018000
twl_ewram        0x02e80000         0x00070000
twl_iwram        0x03000000         0x00040000
*default*        0x00000000         0xffffffff

Linker script and memory map

                0x00000000                        __sync_synchronize = __sync_synchronize_none
                0x037f8000                        __iwram_start = ORIGIN (iwram)
                0x03810000                        __iwram_top = (ORIGIN (iwram) + LENGTH (iwram))
                0x0380ff00                        __sp_irq = (__iwram_top - 0x100)
                0x0380fe00                        __sp_svc = (__sp_irq - 0x100)
                0x0380fd00                        __sp_usr = (__sp_svc - 0x100)
                0x03fffff8                        __irq_flags = 0x3fffff8
                0x03ffffc0                        __irq_flagsaux = 0x3ffffc0
                0x03fffffc                        __irq_vector = 0x3fffffc

.twl            0x03000000     0x1078 load address 0x02e80000
                0x02e80000                        __arm7i_lma__ = LOADADDR (.twl)
                0x03000000                        __arm7i_start__ = .
 *(.twl)
 .twl           0x03000000       0xf0 C:/devkitPro/libnds/lib\libnds7.a(interrupts.o)
                0x03000000                i2cIRQHandler
                0x0300005a                irqSetAUX
                0x03000080                irqClearAUX
                0x030000a8                irqDisableAUX
                0x030000cc                irqEnableAUX
 *.twl*(.text .stub .text.* .gnu.linkonce.t.*)
 .text.readTSC  0x030000f0       0x50 C:/devkitPro/libnds/lib\libnds7.a(codec.twl.o)
 .text.writeTSC
                0x03000140       0x3c C:/devkitPro/libnds/lib\libnds7.a(codec.twl.o)
 .text.bankSwitchTSC
                0x0300017c       0x28 C:/devkitPro/libnds/lib\libnds7.a(codec.twl.o)
 .text.cdcReadReg
                0x030001a4       0x14 C:/devkitPro/libnds/lib\libnds7.a(codec.twl.o)
                0x030001a4                cdcReadReg
 .text.cdcReadRegArray
                0x030001b8       0x94 C:/devkitPro/libnds/lib\libnds7.a(codec.twl.o)
                0x030001b8                cdcReadRegArray
 .text.cdcWriteReg
                0x0300024c       0x18 C:/devkitPro/libnds/lib\libnds7.a(codec.twl.o)
                0x0300024c                cdcWriteReg
 .text.cdcWriteRegMask
                0x03000264       0x28 C:/devkitPro/libnds/lib\libnds7.a(codec.twl.o)
                0x03000264                cdcWriteRegMask
 .text.cdcTouchInit
                0x0300028c       0x88 C:/devkitPro/libnds/lib\libnds7.a(codec.twl.o)
                0x0300028c                cdcTouchInit
 .text.cdcTouchPenDown
                0x03000314       0x28 C:/devkitPro/libnds/lib\libnds7.a(codec.twl.o)
                0x03000314                cdcTouchPenDown
 .text.cdcTouchRead
                0x0300033c       0x7e C:/devkitPro/libnds/lib\libnds7.a(codec.twl.o)
                0x0300033c                cdcTouchRead
 *fill*         0x030003ba        0x2 
 .text.twlEnableSlot1
                0x030003bc       0x58 C:/devkitPro/libnds/lib\libnds7.a(card.twl.o)
                0x030003bc                twlEnableSlot1
 .text.twlDisableSlot1
                0x03000414       0x4c C:/devkitPro/libnds/lib\libnds7.a(card.twl.o)
                0x03000414                twlDisableSlot1
 .text.i2cWaitBusy
                0x03000460       0x10 C:/devkitPro/libnds/lib\libnds7.a(i2c.twl.o)
 .text.i2cDelay
                0x03000470       0x18 C:/devkitPro/libnds/lib\libnds7.a(i2c.twl.o)
                0x03000470                i2cDelay
 .text.i2cStop  0x03000488       0x40 C:/devkitPro/libnds/lib\libnds7.a(i2c.twl.o)
                0x03000488                i2cStop
 .text.i2cGetResult
                0x030004c8       0x18 C:/devkitPro/libnds/lib\libnds7.a(i2c.twl.o)
                0x030004c8                i2cGetResult
 .text.i2cSetDelay
                0x030004e0       0x14 C:/devkitPro/libnds/lib\libnds7.a(i2c.twl.o)
                0x030004e0                i2cSetDelay
 .text.i2cSelectDevice
                0x030004f4       0x24 C:/devkitPro/libnds/lib\libnds7.a(i2c.twl.o)
                0x030004f4                i2cSelectDevice
 .text.i2cSelectRegister
                0x03000518       0x24 C:/devkitPro/libnds/lib\libnds7.a(i2c.twl.o)
                0x03000518                i2cSelectRegister
 .text.i2cWriteRegister
                0x0300053c       0x5c C:/devkitPro/libnds/lib\libnds7.a(i2c.twl.o)
                0x0300053c                i2cWriteRegister
 .text.i2cReadRegister
                0x03000598       0x64 C:/devkitPro/libnds/lib\libnds7.a(i2c.twl.o)
                0x03000598                i2cReadRegister
 .text.setckl   0x030005fc       0x34 C:/devkitPro/libnds/lib\libnds7.a(sdmmc.twl.o)
 .text.calcSDSize
                0x03000630       0x5e C:/devkitPro/libnds/lib\libnds7.a(sdmmc.twl.o)
 *fill*         0x0300068e        0x2 
 .text.setTarget
                0x03000690       0x44 C:/devkitPro/libnds/lib\libnds7.a(sdmmc.twl.o)
                0x03000690                setTarget
 .text.sdmmc_send_command
                0x030006d4      0x254 C:/devkitPro/libnds/lib\libnds7.a(sdmmc.twl.o)
                0x030006d4                sdmmc_send_command
 .text.sdmmc_controller_init
                0x03000928      0x13c C:/devkitPro/libnds/lib\libnds7.a(sdmmc.twl.o)
                0x03000928                sdmmc_controller_init
 .text.sdmmc_sdcard_init
                0x03000a64      0x188 C:/devkitPro/libnds/lib\libnds7.a(sdmmc.twl.o)
                0x03000a64                sdmmc_sdcard_init
 .text.sdmmc_nand_init
                0x03000bec      0x12c C:/devkitPro/libnds/lib\libnds7.a(sdmmc.twl.o)
                0x03000bec                sdmmc_nand_init
 .text.sdmmc_readsectors
                0x03000d18       0x70 C:/devkitPro/libnds/lib\libnds7.a(sdmmc.twl.o)
                0x03000d18                sdmmc_readsectors
 .text.sdmmc_writesectors
                0x03000d88       0x70 C:/devkitPro/libnds/lib\libnds7.a(sdmmc.twl.o)
                0x03000d88                sdmmc_writesectors
 .text.sdmmcMsgHandler
                0x03000df8       0x70 C:/devkitPro/libnds/lib\libnds7.a(sdmmc.twl.o)
                0x03000df8                sdmmcMsgHandler
 .text.sdmmc_nand_startup
                0x03000e68       0x12 C:/devkitPro/libnds/lib\libnds7.a(sdmmc.twl.o)
                0x03000e68                sdmmc_nand_startup
 .text.sdmmc_sd_startup
                0x03000e7a       0x12 C:/devkitPro/libnds/lib\libnds7.a(sdmmc.twl.o)
                0x03000e7a                sdmmc_sd_startup
 .text.sdmmcValueHandler
                0x03000e8c       0x68 C:/devkitPro/libnds/lib\libnds7.a(sdmmc.twl.o)
                0x03000e8c                sdmmcValueHandler
 .text.micSetAmp_TWL
                0x03000ef4       0x84 C:/devkitPro/libnds/lib\libnds7.a(microphone.twl.o)
                0x03000ef4                micSetAmp_TWL
 .text.micReadData16_TWL
                0x03000f78       0x68 C:/devkitPro/libnds/lib\libnds7.a(microphone.twl.o)
                0x03000f78                micReadData16_TWL
 .text.micReadData16_TWL.__stub
                0x03000fe0       0x8c linker stubs
 *.twl*(.rodata)
 *.twl*(.roda)
 *.twl*(.rodata.*)
 .rodata.gaintbl.0
                0x03001070        0x4 C:/devkitPro/libnds/lib\libnds7.a(microphone.twl.o)
 *.twl*(.data)
 *.twl*(.data.*)
 .data.curBank.0
                0x03001074        0x1 C:/devkitPro/libnds/lib\libnds7.a(codec.twl.o)
 *.twl*(.gnu.linkonce.d*)
                0x03001078                        . = ALIGN (0x4)
 *fill*         0x03001075        0x3 
                0x03001078                        __arm7i_end__ = .

.twl_bss        0x03001078      0x14c
                0x03001078                        __twl_bss_start__ = .
 *(.twl_bss)
 .twl_bss       0x03001078       0xcc C:/devkitPro/libnds/lib\libnds7.a(interrupts.o)
                0x0300107c                irqTableAUX
 *.twl.*(.dynbss)
 *.twl.*(.gnu.linkonce.b*)
 *.twl.*(.bss*)
 .bss.i2cCurrentDelay
                0x03001144        0x4 C:/devkitPro/libnds/lib\libnds7.a(i2c.twl.o)
 .bss.deviceNAND
                0x03001148       0x3c C:/devkitPro/libnds/lib\libnds7.a(sdmmc.twl.o)
 .bss.deviceSD  0x03001184       0x3c C:/devkitPro/libnds/lib\libnds7.a(sdmmc.twl.o)
 .bss.sdmmc_controller_initialised
                0x030011c0        0x1 C:/devkitPro/libnds/lib\libnds7.a(sdmmc.twl.o)
 *.twl.*(COMMON)
                0x030011c4                        . = ALIGN (0x4)
 *fill*         0x030011c1        0x3 
                0x030011c4                        __twl_bss_end__ = .

.crt0           0x02380000      0x1c8
 *(.crt0)
 .crt0          0x02380000      0x1c8 C:/devkitPro/devkitARM/bin/../lib/gcc/arm-none-eabi/14.1.0/../../../../arm-none-eabi/lib/ds_arm7_crt0.o
                0x02380000                _start
                0x023801c8                        . = ALIGN (0x4)

.text           0x037f8000     0xbb20 load address 0x023801c8
                0x023801c8                        __arm7_lma__ = LOADADDR (.text)
                0x037f8000                        __arm7_start__ = .
 *(SORT_NONE(.init))
 .init          0x037f8000        0xc C:/devkitPro/devkitARM/bin/../lib/gcc/arm-none-eabi/14.1.0/crti.o
                0x037f8000                _init
 .init          0x037f800c        0xc C:/devkitPro/devkitARM/bin/../lib/gcc/arm-none-eabi/14.1.0/crtn.o
 *(.plt)
 *(.text .stub .text.* .gnu.linkonce.t.*)
 .text.__do_global_dtors_aux
                0x037f8018       0x40 C:/devkitPro/devkitARM/bin/../lib/gcc/arm-none-eabi/14.1.0/crtbegin.o
 .text.frame_dummy
                0x037f8058       0x30 C:/devkitPro/devkitARM/bin/../lib/gcc/arm-none-eabi/14.1.0/crtbegin.o
 .text          0x037f8088       0x34 arm7.o
                0x037f8088                powerButtonCB
                0x037f809c                VblankHandler
                0x037f80ac                VcountHandler
 .text.startup  0x037f80bc      0x2f0 arm7.o
                0x037f80bc                main
 .text.arm7_synctoarm9
                0x037f83ac       0x18 C:/devkitPro/libnds/lib\libdswifi7.a(wifi_arm7.o)
 .text.InitFlashData
                0x037f83c4       0x20 C:/devkitPro/libnds/lib\libdswifi7.a(wifi_arm7.o)
                0x037f83c4                InitFlashData
 .text.ReadFlashBytes
                0x037f83e4       0x54 C:/devkitPro/libnds/lib\libdswifi7.a(wifi_arm7.o)
                0x037f83e4                ReadFlashBytes
 .text.ReadFlashHWord
                0x037f8438       0x1c C:/devkitPro/libnds/lib\libdswifi7.a(wifi_arm7.o)
                0x037f8438                ReadFlashHWord
 .text.crc16_slow
                0x037f8454       0x54 C:/devkitPro/libnds/lib\libdswifi7.a(wifi_arm7.o)
                0x037f8454                crc16_slow
 .text.GetWfcSettings
                0x037f84a8      0x1b4 C:/devkitPro/libnds/lib\libdswifi7.a(wifi_arm7.o)
                0x037f84a8                GetWfcSettings
 .text.Wifi_BBRead
                0x037f865c       0x3c C:/devkitPro/libnds/lib\libdswifi7.a(wifi_arm7.o)
                0x037f865c                Wifi_BBRead
 .text.Wifi_BBWrite
                0x037f8698       0x70 C:/devkitPro/libnds/lib\libdswifi7.a(wifi_arm7.o)
                0x037f8698                Wifi_BBWrite
 .text.Wifi_RFWrite
                0x037f8708       0x3c C:/devkitPro/libnds/lib\libdswifi7.a(wifi_arm7.o)
                0x037f8708                Wifi_RFWrite
 .text.PowerChip_ReadWrite
                0x037f8744       0x78 C:/devkitPro/libnds/lib\libdswifi7.a(wifi_arm7.o)
                0x037f8744                PowerChip_ReadWrite
 .text.SetLedState
                0x037f87bc       0x48 C:/devkitPro/libnds/lib\libdswifi7.a(wifi_arm7.o)
                0x037f87bc                SetLedState
 .text.ProxySetLedState
                0x037f8804       0x1c C:/devkitPro/libnds/lib\libdswifi7.a(wifi_arm7.o)
                0x037f8804                ProxySetLedState
 .text.Wifi_RFInit
                0x037f8820      0x11c C:/devkitPro/libnds/lib\libdswifi7.a(wifi_arm7.o)
                0x037f8820                Wifi_RFInit
 .text.Wifi_BBInit
                0x037f893c       0x40 C:/devkitPro/libnds/lib\libdswifi7.a(wifi_arm7.o)
                0x037f893c                Wifi_BBInit
 .text.Wifi_MacInit
                0x037f897c       0x3c C:/devkitPro/libnds/lib\libdswifi7.a(wifi_arm7.o)
                0x037f897c                Wifi_MacInit
 .text.Wifi_RxSetup
                0x037f89b8       0x58 C:/devkitPro/libnds/lib\libdswifi7.a(wifi_arm7.o)
                0x037f89b8                Wifi_RxSetup
 .text.Wifi_WakeUp
                0x037f8a10       0x64 C:/devkitPro/libnds/lib\libdswifi7.a(wifi_arm7.o)
                0x037f8a10                Wifi_WakeUp
 .text.Wifi_Shutdown
                0x037f8a74       0x5c C:/devkitPro/libnds/lib\libdswifi7.a(wifi_arm7.o)
                0x037f8a74                Wifi_Shutdown
 .text.Wifi_CmpMacAddr
                0x037f8ad0       0x40 C:/devkitPro/libnds/lib\libdswifi7.a(wifi_arm7.o)
                0x037f8ad0                Wifi_CmpMacAddr
 .text.Wifi_MACRead
                0x037f8b10       0x48 C:/devkitPro/libnds/lib\libdswifi7.a(wifi_arm7.o)
                0x037f8b10                Wifi_MACRead
 .text.Wifi_MACCopy
                0x037f8b58       0x84 C:/devkitPro/libnds/lib\libdswifi7.a(wifi_arm7.o)
                0x037f8b58                Wifi_MACCopy
 .text.Wifi_MACWrite
                0x037f8bdc       0x8c C:/devkitPro/libnds/lib\libdswifi7.a(wifi_arm7.o)
                0x037f8bdc                Wifi_MACWrite
 .text.Wifi_QueueRxMacData
                0x037f8c68      0x104 C:/devkitPro/libnds/lib\libdswifi7.a(wifi_arm7.o)
                0x037f8c68                Wifi_QueueRxMacData
 .text.Wifi_CheckTxBuf
                0x037f8d6c       0x34 C:/devkitPro/libnds/lib\libdswifi7.a(wifi_arm7.o)
                0x037f8d6c                Wifi_CheckTxBuf
 .text.Wifi_CopyFirstTxData
                0x037f8da0       0xec C:/devkitPro/libnds/lib\libdswifi7.a(wifi_arm7.o)
                0x037f8da0                Wifi_CopyFirstTxData
 .text.Wifi_TxRaw
                0x037f8e8c       0x7c C:/devkitPro/libnds/lib\libdswifi7.a(wifi_arm7.o)
                0x037f8e8c                Wifi_TxRaw
 .text.Wifi_TxCheck
                0x037f8f08       0x18 C:/devkitPro/libnds/lib\libdswifi7.a(wifi_arm7.o)
                0x037f8f08                Wifi_TxCheck
 .text.Wifi_LoadBeacon
                0x037f8f20      0x11c C:/devkitPro/libnds/lib\libdswifi7.a(wifi_arm7.o)
                0x037f8f20                Wifi_LoadBeacon
 .text.Wifi_SetBeaconChannel
                0x037f903c       0x6c C:/devkitPro/libnds/lib\libdswifi7.a(wifi_arm7.o)
                0x037f903c                Wifi_SetBeaconChannel
 .text.Wifi_SetChannel.part.6
                0x037f90a8      0x1ac C:/devkitPro/libnds/lib\libdswifi7.a(wifi_arm7.o)
 .text.Wifi_Intr_CntOverflow
                0x037f9254       0x64 C:/devkitPro/libnds/lib\libdswifi7.a(wifi_arm7.o)
                0x037f9254                Wifi_Intr_CntOverflow
 .text.Wifi_Intr_TxEnd
                0x037f92b8      0x170 C:/devkitPro/libnds/lib\libdswifi7.a(wifi_arm7.o)
                0x037f92b8                Wifi_Intr_TxEnd
 .text.Wifi_Stop
                0x037f9428       0x60 C:/devkitPro/libnds/lib\libdswifi7.a(wifi_arm7.o)
                0x037f9428                Wifi_Stop
 .text.Wifi_Init
                0x037f9488      0x1f0 C:/devkitPro/libnds/lib\libdswifi7.a(wifi_arm7.o)
                0x037f9488                Wifi_Init
 .text.wifiAddressHandler
                0x037f9678       0x1c C:/devkitPro/libnds/lib\libdswifi7.a(wifi_arm7.o)
 .text.Wifi_SetChannel
                0x037f9694       0x10 C:/devkitPro/libnds/lib\libdswifi7.a(wifi_arm7.o)
                0x037f9694                Wifi_SetChannel
 .text.Wifi_SetWepKey
                0x037f96a4       0x3c C:/devkitPro/libnds/lib\libdswifi7.a(wifi_arm7.o)
                0x037f96a4                Wifi_SetWepKey
 .text.Wifi_SetWepMode
                0x037f96e0       0x3c C:/devkitPro/libnds/lib\libdswifi7.a(wifi_arm7.o)
                0x037f96e0                Wifi_SetWepMode
 .text.Wifi_DisableTempPowerSave
                0x037f971c       0x28 C:/devkitPro/libnds/lib\libdswifi7.a(wifi_arm7.o)
                0x037f971c                Wifi_DisableTempPowerSave
 .text.Wifi_Start
                0x037f9744      0x124 C:/devkitPro/libnds/lib\libdswifi7.a(wifi_arm7.o)
                0x037f9744                Wifi_Start
 .text.Wifi_TxQueue
                0x037f9868       0xd8 C:/devkitPro/libnds/lib\libdswifi7.a(wifi_arm7.o)
                0x037f9868                Wifi_TxQueue
 .text.Wifi_GenMgtHeader
                0x037f9940       0xd0 C:/devkitPro/libnds/lib\libdswifi7.a(wifi_arm7.o)
                0x037f9940                Wifi_GenMgtHeader
 .text.Wifi_SendOpenSystemAuthPacket
                0x037f9a10       0x58 C:/devkitPro/libnds/lib\libdswifi7.a(wifi_arm7.o)
                0x037f9a10                Wifi_SendOpenSystemAuthPacket
 .text.Wifi_SendSharedKeyAuthPacket
                0x037f9a68       0x58 C:/devkitPro/libnds/lib\libdswifi7.a(wifi_arm7.o)
                0x037f9a68                Wifi_SendSharedKeyAuthPacket
 .text.Wifi_SendSharedKeyAuthPacket2
                0x037f9ac0       0xa0 C:/devkitPro/libnds/lib\libdswifi7.a(wifi_arm7.o)
                0x037f9ac0                Wifi_SendSharedKeyAuthPacket2
 .text.Wifi_SendAssocPacket
                0x037f9b60      0x1c4 C:/devkitPro/libnds/lib\libdswifi7.a(wifi_arm7.o)
                0x037f9b60                Wifi_SendAssocPacket
 .text.Wifi_SendNullFrame
                0x037f9d24       0x80 C:/devkitPro/libnds/lib\libdswifi7.a(wifi_arm7.o)
                0x037f9d24                Wifi_SendNullFrame
 .text.Wifi_ProcessReceivedFrame
                0x037f9da4      0xd18 C:/devkitPro/libnds/lib\libdswifi7.a(wifi_arm7.o)
                0x037f9da4                Wifi_ProcessReceivedFrame
 .text.Wifi_Intr_RxEnd
                0x037faabc      0x128 C:/devkitPro/libnds/lib\libdswifi7.a(wifi_arm7.o)
                0x037faabc                Wifi_Intr_RxEnd
 .text.Wifi_Interrupt
                0x037fabe4      0x138 C:/devkitPro/libnds/lib\libdswifi7.a(wifi_arm7.o)
                0x037fabe4                Wifi_Interrupt
 .text.Wifi_Update
                0x037fad1c      0x580 C:/devkitPro/libnds/lib\libdswifi7.a(wifi_arm7.o)
                0x037fad1c                Wifi_Update
 .text.wifiValue32Handler
                0x037fb29c       0x44 C:/devkitPro/libnds/lib\libdswifi7.a(wifi_arm7.o)
 .text.installWifiFIFO
                0x037fb2e0       0x58 C:/devkitPro/libnds/lib\libdswifi7.a(wifi_arm7.o)
                0x037fb2e0                installWifiFIFO
 .text          0x037fb338       0x5c C:/devkitPro/libnds/lib\libdswifi7.a(spinlock.o)
                0x037fb338                SLasm_Acquire
                0x037fb36c                SLasm_Release
 .text          0x037fb394      0x1e4 C:/devkitPro/libnds/lib\libmm7.a(mm_main_ds.o)
                0x037fb394                mmLockChannels
                0x037fb41e                mmUnlockChannels
                0x037fb430                mmSuspendIRQ_t
                0x037fb44c                mmRestoreIRQ_t
                0x037fb46c                mmIsInitialized
                0x037fb472                mmInit7
                0x037fb4d4                mmInstall
                0x037fb4f4                mmGetSoundBank
                0x037fb500                mmFrame
 .text          0x037fb578     0x1b6c C:/devkitPro/libnds/lib\libmm7.a(mm_mas.o)
                0x037fb5c8                mm_reset_channels
                0x037fb61e                mmStart
                0x037fb632                mmJingle
                0x037fb638                mmPlayModule
                0x037fb700                mmPause
                0x037fb71c                mmResume
                0x037fb72c                mmActive
                0x037fb732                mmActiveSub
                0x037fb738                mmSetModuleVolume
                0x037fb748                mmSetJingleVolume
                0x037fb784                mmGetPositionTick
                0x037fb78a                mmGetPositionRow
                0x037fb790                mmGetPosition
                0x037fb796                mmPosition
                0x037fb7b0                mmSetModuleTempo
                0x037fb7e2                mmSetModulePitch
                0x037fb824                mmSetResolution
                0x037fb854                mmStop
                0x037fb93c                mmPulse
                0x037fb99c                mppProcessTick
                0x037fbb18                mpp_Channel_NewNote
                0x037fbc20                mpp_Update_ACHN_notest
                0x037fc01e                mpp_Process_VolumeCommand
                0x037fc256                mpp_Process_Effect
                0x037fc9a4                ST3_FREQTABLE
                0x037fcdc4                IT_PitchTable
 .text          0x037fd0e4       0x14 C:/devkitPro/libnds/lib\libmm7.a(mm_main.o)
                0x037fd0e4                mpp_call_r7
                0x037fd0e6                mpp_call_r1
                0x037fd0e8                mpp_call_r2
                0x037fd0ea                mpp_call_r3
                0x037fd0ec                mmSetEventHandler
 .text          0x037fd0f8      0x328 C:/devkitPro/libnds/lib\libmm7.a(mm_effect.o)
                0x037fd0f8                mmResetEffects
                0x037fd124                mmEffect
                0x037fd13a                mmEffectEx
                0x037fd24c                mmEffectActive
                0x037fd280                mmEffectVolume
                0x037fd29c                mmEffectPanning
                0x037fd2b0                mmEffectRate
                0x037fd2c4                mmEffectCancel
                0x037fd2fe                mmEffectRelease
                0x037fd324                mmEffectScaleRate
                0x037fd338                mmSetEffectsVolume
                0x037fd346                mmEffectCancelAll
                0x037fd386                mmUpdateEffects
 .text          0x037fd420      0x648 C:/devkitPro/libnds/lib\libmm7.a(mm_mas_arm.o)
                0x037fd420                mmAllocChannel
                0x037fd494                mmReadPattern
                0x037fd580                mmUpdateChannel_T0
                0x037fd7c0                mmUpdateChannel_TN
                0x037fd960                mmGetPeriod
                0x037fd9a4                note_table_oct
                0x037fd9c2                note_table_mod
 .text          0x037fda68     0x1690 C:/devkitPro/libnds/lib\libmm7.a(mm_mixer_super.o)
                0x037fdae8                mmMixerPre
                0x037fdbbc                mmMixerMix
                0x037fe708                mmVolumeTable
                0x037fee7e                mmMixerSetSource
                0x037fee94                mmMixerSetFreq
                0x037feeb4                mmMixerMulFreq
                0x037feece                mmMixerStopChannel
                0x037feed8                mmMixerChannelActive
                0x037feee2                mmMixerSetVolume
                0x037feeea                mmMixerSetPan
                0x037feefc                mmMixerInit
                0x037feefe                mmSelectMode
 .text          0x037ff0f8      0x7ec C:/devkitPro/libnds/lib\libmm7.a(mm_comms7.o)
                0x037ff0f8                mmSetupComms
                0x037ff218                mmSendUpdateToARM9
                0x037ff24c                mmARM9msg
                0x037ff28c                mmProcessComms
 .text          0x037ff8e4      0x428 C:/devkitPro/libnds/lib\libmm7.a(mm_stream.o)
                0x037ff8e4                mmStreamOpen
                0x037ff9c4                mmStreamGetPosition
                0x037ff9fe                mmStreamUpdate
                0x037ffbe0                mmStreamClose
                0x037ffc16                mmStreamBegin
                0x037ffcac                mmStreamEnd
 .text          0x037ffd0c      0x280 C:/devkitPro/libnds/lib\libmm7.a(mm_reverb.o)
                0x037ffd0c                mmReverbEnable
                0x037ffd2a                mmReverbDisable
                0x037ffd6e                mmReverbConfigure
                0x037ffed0                mmReverbStart
                0x037fff18                mmReverbStop
 .text.enableSlot1
                0x037fff8c       0x18 C:/devkitPro/libnds/lib\libnds7.a(system.o)
                0x037fff8c                enableSlot1
 .text.disableSlot1
                0x037fffa4       0x18 C:/devkitPro/libnds/lib\libnds7.a(system.o)
                0x037fffa4                disableSlot1
 .text.powerValueHandler
                0x037fffbc      0x158 C:/devkitPro/libnds/lib\libnds7.a(system.o)
                0x037fffbc                powerValueHandler
 .text.systemSleep
                0x03800114       0x20 C:/devkitPro/libnds/lib\libnds7.a(system.o)
                0x03800114                systemSleep
 .text.installSystemFIFO
                0x03800134       0x4c C:/devkitPro/libnds/lib\libnds7.a(system.o)
                0x03800134                installSystemFIFO
 .text.SerialWaitBusy
                0x03800180       0x10 C:/devkitPro/libnds/lib\libnds7.a(touch.o)
 .text.cdcIsAvailable
                0x03800190       0x24 C:/devkitPro/libnds/lib\libnds7.a(touch.o)
 .text.CheckStylus
                0x038001b4       0x88 C:/devkitPro/libnds/lib\libnds7.a(touch.o)
 .text.readTouchValue
                0x0380023c      0x15c C:/devkitPro/libnds/lib\libnds7.a(touch.o)
                0x0380023c                readTouchValue
 .text.UpdateRange
                0x03800398       0x6c C:/devkitPro/libnds/lib\libnds7.a(touch.o)
                0x03800398                UpdateRange
 .text.touchInit
                0x03800404       0xe0 C:/devkitPro/libnds/lib\libnds7.a(touch.o)
                0x03800404                touchInit
 .text.touchPenDown
                0x038004e4       0x34 C:/devkitPro/libnds/lib\libnds7.a(touch.o)
                0x038004e4                touchPenDown
 .text.touchReadXY
                0x03800518      0x194 C:/devkitPro/libnds/lib\libnds7.a(touch.o)
                0x03800518                touchReadXY
 .text.syncRTC  0x038006ac       0x20 C:/devkitPro/libnds/lib\libnds7.a(clock.o)
                0x038006ac                syncRTC
 .text.BCDToInteger
                0x038006cc       0x22 C:/devkitPro/libnds/lib\libnds7.a(clock.o)
                0x038006cc                BCDToInteger
 *fill*         0x038006ee        0x2 
 .text.rtcTransaction
                0x038006f0       0xf4 C:/devkitPro/libnds/lib\libnds7.a(clock.o)
                0x038006f0                rtcTransaction
 .text.rtcReset
                0x038007e4       0x3e C:/devkitPro/libnds/lib\libnds7.a(clock.o)
                0x038007e4                rtcReset
 .text.rtcGetTimeAndDate
                0x03800822       0x4a C:/devkitPro/libnds/lib\libnds7.a(clock.o)
                0x03800822                rtcGetTimeAndDate
 .text.resyncClock
                0x0380086c       0xdc C:/devkitPro/libnds/lib\libnds7.a(clock.o)
                0x0380086c                resyncClock
 .text.initClockIRQ
                0x03800948       0x7c C:/devkitPro/libnds/lib\libnds7.a(clock.o)
                0x03800948                initClockIRQ
 .text.micSwapHandler
                0x038009c4       0x20 C:/devkitPro/libnds/lib\libnds7.a(audio.o)
                0x038009c4                micSwapHandler
 .text.getFreeChannel
                0x038009e4       0x1c C:/devkitPro/libnds/lib\libnds7.a(audio.o)
                0x038009e4                getFreeChannel
 .text.getFreePSGChannel
                0x03800a00       0x1c C:/devkitPro/libnds/lib\libnds7.a(audio.o)
                0x03800a00                getFreePSGChannel
 .text.getFreeNoiseChannel
                0x03800a1c       0x24 C:/devkitPro/libnds/lib\libnds7.a(audio.o)
                0x03800a1c                getFreeNoiseChannel
 .text.soundDataHandler
                0x03800a40      0x144 C:/devkitPro/libnds/lib\libnds7.a(audio.o)
                0x03800a40                soundDataHandler
 .text.enableSound
                0x03800b84       0x40 C:/devkitPro/libnds/lib\libnds7.a(audio.o)
                0x03800b84                enableSound
 .text.disableSound
                0x03800bc4       0x3c C:/devkitPro/libnds/lib\libnds7.a(audio.o)
                0x03800bc4                disableSound
 .text.soundCommandHandler
                0x03800c00      0x100 C:/devkitPro/libnds/lib\libnds7.a(audio.o)
                0x03800c00                soundCommandHandler
 .text.installSoundFIFO
                0x03800d00       0x24 C:/devkitPro/libnds/lib\libnds7.a(audio.o)
                0x03800d00                installSoundFIFO
 .text.writePowerManagement
                0x03800d24       0x5c C:/devkitPro/libnds/lib\libnds7.a(spi.o)
                0x03800d24                writePowerManagement
 .text.ledBlink
                0x03800d80       0x22 C:/devkitPro/libnds/lib\libnds7.a(spi.o)
                0x03800d80                ledBlink
 *fill*         0x03800da2        0x2 
 .text.SerialWaitBusy
                0x03800da4       0x10 C:/devkitPro/libnds/lib\libnds7.a(firmware.o)
 .text.readwriteSPI.isra.0
                0x03800db4       0x18 C:/devkitPro/libnds/lib\libnds7.a(firmware.o)
 .text.readFirmware
                0x03800dcc       0x74 C:/devkitPro/libnds/lib\libnds7.a(firmware.o)
                0x03800dcc                readFirmware
 .text.writeFirmware
                0x03800e40      0x134 C:/devkitPro/libnds/lib\libnds7.a(firmware.o)
                0x03800e40                writeFirmware
 .text.firmwareMsgHandler
                0x03800f74       0x48 C:/devkitPro/libnds/lib\libnds7.a(firmware.o)
                0x03800f74                firmwareMsgHandler
 .text.readUserSettings
                0x03800fbc       0xd8 C:/devkitPro/libnds/lib\libnds7.a(userSettings.o)
                0x03800fbc                readUserSettings
 .text.inputGetAndSend
                0x03801094       0xb4 C:/devkitPro/libnds/lib\libnds7.a(input.o)
                0x03801094                inputGetAndSend
 .text.irqDummy
                0x03801148        0x2 C:/devkitPro/libnds/lib\libnds7.a(interrupts.o)
                0x03801148                irqDummy
 *fill*         0x0380114a        0x2 
 .text.__irqClear
                0x0380114c       0x1c C:/devkitPro/libnds/lib\libnds7.a(interrupts.o)
 .text.__irqSet.part.0
                0x03801168       0x22 C:/devkitPro/libnds/lib\libnds7.a(interrupts.o)
 *fill*         0x0380118a        0x2 
 .text.setPowerButtonCB
                0x0380118c       0x1c C:/devkitPro/libnds/lib\libnds7.a(interrupts.o)
                0x0380118c                setPowerButtonCB
 .text.irqSet   0x038011a8       0x5c C:/devkitPro/libnds/lib\libnds7.a(interrupts.o)
                0x038011a8                irqSet
 .text.irqInitHandler
                0x03801204       0x44 C:/devkitPro/libnds/lib\libnds7.a(interrupts.o)
                0x03801204                irqInitHandler
 .text.irqEnable
                0x03801248       0x64 C:/devkitPro/libnds/lib\libnds7.a(interrupts.o)
                0x03801248                irqEnable
 .text.irqDisable
                0x038012ac       0x68 C:/devkitPro/libnds/lib\libnds7.a(interrupts.o)
                0x038012ac                irqDisable
 .text.irqInit  0x03801314       0x58 C:/devkitPro/libnds/lib\libnds7.a(interrupts.o)
                0x03801314                irqInit
 .text.systemErrorExit
                0x0380136c        0x4 C:/devkitPro/libnds/lib\libnds7.a(libnds_exit.arm.o)
                0x0380136c                systemErrorExit
 .text.__libnds_exit
                0x03801370       0x54 C:/devkitPro/libnds/lib\libnds7.a(libnds_exit.arm.o)
                0x03801370                __libnds_exit
 .text.fifo_allocBlock
                0x038013c4       0x40 C:/devkitPro/libnds/lib\libnds7.a(fifosystem.o)
 .text.fifo_freeBlock
                0x03801404       0x30 C:/devkitPro/libnds/lib\libnds7.a(fifosystem.o)
 .text.fifo_waitBlock
                0x03801434       0x40 C:/devkitPro/libnds/lib\libnds7.a(fifosystem.o)
 .text.fifo_queueBlock
                0x03801474       0x44 C:/devkitPro/libnds/lib\libnds7.a(fifosystem.o)
 .text.fifoInternalSendInterrupt
                0x038014b8       0x64 C:/devkitPro/libnds/lib\libnds7.a(fifosystem.o)
 .text.fifoInternalSend
                0x0380151c       0xdc C:/devkitPro/libnds/lib\libnds7.a(fifosystem.o)
 .text.fifoSendValue32
                0x038015f8       0x38 C:/devkitPro/libnds/lib\libnds7.a(fifosystem.o)
                0x038015f8                fifoSendValue32
 .text.fifoSendDatamsg
                0x03801630       0x70 C:/devkitPro/libnds/lib\libnds7.a(fifosystem.o)
                0x03801630                fifoSendDatamsg
 .text.fifoGetAddress
                0x038016a0       0x4c C:/devkitPro/libnds/lib\libnds7.a(fifosystem.o)
                0x038016a0                fifoGetAddress
 .text.fifoGetValue32
                0x038016ec       0x4c C:/devkitPro/libnds/lib\libnds7.a(fifosystem.o)
                0x038016ec                fifoGetValue32
 .text.fifoGetDatamsg
                0x03801738       0xc0 C:/devkitPro/libnds/lib\libnds7.a(fifosystem.o)
                0x03801738                fifoGetDatamsg
 .text.fifoInternalRecvInterrupt
                0x038017f8      0x2c0 C:/devkitPro/libnds/lib\libnds7.a(fifosystem.o)
 .text.fifoCheckAddress
                0x03801ab8       0x20 C:/devkitPro/libnds/lib\libnds7.a(fifosystem.o)
                0x03801ab8                fifoCheckAddress
 .text.fifoSetAddressHandler
                0x03801ad8       0x5c C:/devkitPro/libnds/lib\libnds7.a(fifosystem.o)
                0x03801ad8                fifoSetAddressHandler
 .text.fifoCheckDatamsg
                0x03801b34       0x20 C:/devkitPro/libnds/lib\libnds7.a(fifosystem.o)
                0x03801b34                fifoCheckDatamsg
 .text.fifoSetDatamsgHandler
                0x03801b54       0x8c C:/devkitPro/libnds/lib\libnds7.a(fifosystem.o)
                0x03801b54                fifoSetDatamsgHandler
 .text.fifoCheckValue32
                0x03801be0       0x20 C:/devkitPro/libnds/lib\libnds7.a(fifosystem.o)
                0x03801be0                fifoCheckValue32
 .text.fifoSetValue32Handler
                0x03801c00       0x5c C:/devkitPro/libnds/lib\libnds7.a(fifosystem.o)
                0x03801c00                fifoSetValue32Handler
 .text.fifoInit
                0x03801c5c       0xd4 C:/devkitPro/libnds/lib\libnds7.a(fifosystem.o)
                0x03801c5c                fifoInit
 .text.swiWaitForVBlank
                0x03801d30       0x10 C:/devkitPro/libnds/lib\libnds7.a(intrwait.o)
                0x03801d30                swiWaitForVBlank
 .text.swiIntrWait
                0x03801d40       0x44 C:/devkitPro/libnds/lib\libnds7.a(intrwait.o)
                0x03801d40                swiIntrWait
 .text          0x03801d84       0xec C:/devkitPro/libnds/lib\libnds7.a(interruptDispatcher.o)
                0x03801d84                IntrMain
 .text.swiDelay
                0x03801e70        0x4 C:/devkitPro/libnds/lib\libnds7.a(biosCalls.o)
                0x03801e70                swiDelay
 .text.swiSleep
                0x03801e74        0x4 C:/devkitPro/libnds/lib\libnds7.a(biosCalls.o)
                0x03801e74                swiSleep
 .text.swiChangeSoundBias
                0x03801e78        0x4 C:/devkitPro/libnds/lib\libnds7.a(biosCalls.o)
                0x03801e78                swiChangeSoundBias
 .text.swiCRC16
                0x03801e7c        0x4 C:/devkitPro/libnds/lib\libnds7.a(biosCalls.o)
                0x03801e7c                swiCRC16
 .text.swiSoftReset
                0x03801e80       0x10 C:/devkitPro/libnds/lib\libnds7.a(swiSoftReset.o)
                0x03801e80                swiSoftReset
 .text.SerialWaitBusy
                0x03801e90       0x10 C:/devkitPro/libnds/lib\libnds7.a(microphone.o)
 .text.cdcIsAvailable
                0x03801ea0       0x24 C:/devkitPro/libnds/lib\libnds7.a(microphone.o)
 .text.micSetAmp_NTR
                0x03801ec4       0x4c C:/devkitPro/libnds/lib\libnds7.a(microphone.o)
                0x03801ec4                micSetAmp_NTR
 .text.micReadData8_NTR
                0x03801f10       0x50 C:/devkitPro/libnds/lib\libnds7.a(microphone.o)
                0x03801f10                micReadData8_NTR
 .text.micReadData12_NTR
                0x03801f60       0x50 C:/devkitPro/libnds/lib\libnds7.a(microphone.o)
                0x03801f60                micReadData12_NTR
 .text.micSetAmp
                0x03801fb0       0x34 C:/devkitPro/libnds/lib\libnds7.a(microphone.o)
                0x03801fb0                micSetAmp
 .text.micReadData8
                0x03801fe4       0x30 C:/devkitPro/libnds/lib\libnds7.a(microphone.o)
                0x03801fe4                micReadData8
 .text.micReadData12
                0x03802014       0x30 C:/devkitPro/libnds/lib\libnds7.a(microphone.o)
                0x03802014                micReadData12
 .text.micTimerHandler
                0x03802044       0x88 C:/devkitPro/libnds/lib\libnds7.a(microphone.o)
                0x03802044                micTimerHandler
 .text.micStartRecording
                0x038020cc       0x9c C:/devkitPro/libnds/lib\libnds7.a(microphone.o)
                0x038020cc                micStartRecording
 .text.micStopRecording
                0x03802168       0x6c C:/devkitPro/libnds/lib\libnds7.a(microphone.o)
                0x03802168                micStopRecording
 .text.systemShutDown
                0x038021d4       0x30 C:/devkitPro/libnds/lib\libnds7.a(systemShutDown.o)
                0x038021d4                systemShutDown
 .text          0x03802204       0xdc C:\devkitPro\libcamera/lib\libcamera7.a(cam7.o)
                0x03802204                camFIFOHandler
                0x03802288                camSetup
                0x038022b4                camSetupDefault
 .text          0x038022e0      0xc94 C:\devkitPro\libcamera/lib\libcamera7.a(cam_ops.o)
                0x038022e0                setApt
                0x03802320                clrApt
                0x03802360                waitClrApt
                0x03802390                waitSetApt
                0x038023c0                writeMCU
                0x038023fc                readMCU
                0x03802430                setMCU
                0x0380249c                waitClrMCU
                0x038024e4                aptinaInit
                0x03802da8                aptinaActivate
                0x03802e70                aptinaDeactivate
                0x03802f24                aptinaSwitch
                0x03802f64                initParams
 .text          0x03802f74      0x2bc C:\devkitPro\libcamera/lib\libcamera7.a(cam_i2c.o)
                0x03802f74                writeI2C
                0x03803018                readI2C
                0x038030ec                writeBPTWL
                0x03803174                readBPTWL
 .text          0x03803230       0x14 C:/devkitPro/devkitARM/bin/../lib/gcc/arm-none-eabi/14.1.0\libgcc.a(_thumb1_case_uqi.o)
                0x03803230                __gnu_thumb1_case_uqi
 .text          0x03803244      0x114 C:/devkitPro/devkitARM/bin/../lib/gcc/arm-none-eabi/14.1.0\libgcc.a(_udivsi3.o)
                0x03803244                __aeabi_uidiv
                0x03803244                __udivsi3
                0x03803338                __aeabi_uidivmod
 .text          0x03803358      0x148 C:/devkitPro/devkitARM/bin/../lib/gcc/arm-none-eabi/14.1.0\libgcc.a(_divsi3.o)
                0x03803358                __divsi3
                0x03803358                __aeabi_idiv
                0x03803480                __aeabi_idivmod
 .text          0x038034a0        0x4 C:/devkitPro/devkitARM/bin/../lib/gcc/arm-none-eabi/14.1.0\libgcc.a(_dvmd_tls.o)
                0x038034a0                __aeabi_idiv0
                0x038034a0                __aeabi_ldiv0
 .text          0x038034a4       0x3c C:/devkitPro/devkitARM/bin/../lib/gcc/arm-none-eabi/14.1.0\libgcc.a(_call_via_rX.o)
                0x038034a4                _call_via_r0
                0x038034a8                _call_via_r1
                0x038034ac                _call_via_r2
                0x038034b0                _call_via_r3
                0x038034b4                _call_via_r4
                0x038034b8                _call_via_r5
                0x038034bc                _call_via_r6
                0x038034c0                _call_via_r7
                0x038034c4                _call_via_r8
                0x038034c8                _call_via_r9
                0x038034cc                _call_via_sl
                0x038034d0                _call_via_fp
                0x038034d4                _call_via_ip
                0x038034d8                _call_via_sp
                0x038034dc                _call_via_lr
 .text.memcmp   0x038034e0       0xdc C:/devkitPro/devkitARM/bin/../lib/gcc/arm-none-eabi/14.1.0/../../../../arm-none-eabi/lib\libg.a(libc_a-memcmp.o)
                0x038034e0                memcmp
 .text.memcpy   0x038035bc      0x130 C:/devkitPro/devkitARM/bin/../lib/gcc/arm-none-eabi/14.1.0/../../../../arm-none-eabi/lib\libg.a(libc_a-memcpy-stub.o)
                0x038035bc                memcpy
 .text.memset   0x038036ec      0x100 C:/devkitPro/devkitARM/bin/../lib/gcc/arm-none-eabi/14.1.0/../../../../arm-none-eabi/lib\libg.a(libc_a-memset.o)
                0x038036ec                memset
 .text.__libc_init_array
                0x038037ec       0x90 C:/devkitPro/devkitARM/bin/../lib/gcc/arm-none-eabi/14.1.0/../../../../arm-none-eabi/lib\libg.a(libc_a-init.o)
                0x038037ec                __libc_init_array
 *fill*         0x0380387c        0x4 
 .text.__libc_init_array.__stub
                0x03803880      0x23c linker stubs
 *(.text.*personality*)
 *(.gnu.warning)
 *(.glue_7t)
 .glue_7t       0x03803b20        0x0 linker stubs
 *(.glue_7)
 .glue_7        0x03803b20        0x0 linker stubs
 *(.vfp11_veneer)
 .vfp11_veneer  0x03803b20        0x0 linker stubs
                0x03803b20                        . = ALIGN (0x4)

.v4_bx          0x03803b20        0x0 load address 0x0238bce8
 .v4_bx         0x03803b20        0x0 linker stubs

.iplt           0x03803b20        0x0 load address 0x0238bce8
 .iplt          0x03803b20        0x0 C:/devkitPro/devkitARM/bin/../lib/gcc/arm-none-eabi/14.1.0/../../../../arm-none-eabi/lib/ds_arm7_crt0.o

.fini           0x03803b20       0x18 load address 0x0238bce8
 *(.fini)
 .fini          0x03803b20        0xc C:/devkitPro/devkitARM/bin/../lib/gcc/arm-none-eabi/14.1.0/crti.o
                0x03803b20                _fini
 .fini          0x03803b2c        0xc C:/devkitPro/devkitARM/bin/../lib/gcc/arm-none-eabi/14.1.0/crtn.o

.rodata         0x03803b38       0x30 load address 0x0238bd00
 *(.rodata)
 *all.rodata*(*)
 *(.roda)
 *(.rodata.*)
 .rodata.scanlist
                0x03803b38       0x13 C:/devkitPro/libnds/lib\libdswifi7.a(wifi_arm7.o)
 *fill*         0x03803b4b        0x1 
 .rodata.ydays  0x03803b4c       0x1a C:/devkitPro/libnds/lib\libnds7.a(clock.o)
 *(.gnu.linkonce.r*)
                0x03803b68                        . = ALIGN (0x4)
 *fill*         0x03803b66        0x2 

.ARM.extab
 *(.ARM.extab* .gnu.linkonce.armextab.*)

.ARM.exidx      0x03803b68        0x0 load address 0x0238bd30
                0x03803b68                        __exidx_start = .
 *(.ARM.exidx* .gnu.linkonce.armexidx.*)
                0x03803b68                        __exidx_end = .

.preinit_array  0x03803b68        0x0 load address 0x0238bd30
                0x03803b68                        . = ALIGN (0x4)
                0x03803b68                        PROVIDE (__preinit_array_start = .)
 *(.preinit_array)
                0x03803b68                        PROVIDE (__preinit_array_end = .)

.init_array     0x03803b68        0x4 load address 0x0238bd30
                0x03803b68                        PROVIDE (__init_array_start = .)
 *(.init_array)
 .init_array    0x03803b68        0x4 C:/devkitPro/devkitARM/bin/../lib/gcc/arm-none-eabi/14.1.0/crtbegin.o
                0x03803b6c                        PROVIDE (__init_array_end = .)

.fini_array     0x03803b6c        0x4 load address 0x0238bd34
                [!provide]                        PROVIDE (__fini_array_start = .)
 *(.fini_array)
 .fini_array    0x03803b6c        0x4 C:/devkitPro/devkitARM/bin/../lib/gcc/arm-none-eabi/14.1.0/crtbegin.o
                [!provide]                        PROVIDE (__fini_array_end = .)

.ctors          0x03803b70        0x0 load address 0x0238bd38
 *crtbegin.o(.ctors)
 *(EXCLUDE_FILE(*crtend.o) .ctors)
 *(SORT_BY_NAME(.ctors.*))
 *(.ctors)
                0x03803b70                        . = ALIGN (0x4)

.dtors          0x03803b70        0x0 load address 0x0238bd38
 *crtbegin.o(.dtors)
 *(EXCLUDE_FILE(*crtend.o) .dtors)
 *(SORT_BY_NAME(.dtors.*))
 *(.dtors)
                0x03803b70                        . = ALIGN (0x4)

.eh_frame       0x03803b70        0x4 load address 0x0238bd38
 *(.eh_frame)
 .eh_frame      0x03803b70        0x0 C:/devkitPro/devkitARM/bin/../lib/gcc/arm-none-eabi/14.1.0/crtbegin.o
 .eh_frame      0x03803b70        0x4 C:/devkitPro/devkitARM/bin/../lib/gcc/arm-none-eabi/14.1.0/crtend.o
                0x03803b74                        . = ALIGN (0x4)

.rel.dyn        0x03803b74        0x0 load address 0x0238bd3c
 .rel.iplt      0x03803b74        0x0 C:/devkitPro/devkitARM/bin/../lib/gcc/arm-none-eabi/14.1.0/../../../../arm-none-eabi/lib/ds_arm7_crt0.o

.gcc_except_table
                0x03803b74        0x0 load address 0x0238bd3c
 *(.gcc_except_table)
                0x03803b74                        . = ALIGN (0x4)

.jcr
 *(.jcr)

.got
 *(.got.plt)
 *(.got)

.data           0x03803b74      0x12c load address 0x0238bd3c
                0x03803b74                        __data_start = ABSOLUTE (.)
 *(.data)
 *(.data.*)
 .data.MAC_Reglist
                0x03803b74       0x58 C:/devkitPro/libnds/lib\libdswifi7.a(wifi_arm7.o)
                0x03803b74                MAC_Reglist
 .data.MAC_Vallist
                0x03803bcc       0x58 C:/devkitPro/libnds/lib\libdswifi7.a(wifi_arm7.o)
                0x03803bcc                MAC_Vallist
 .data.RF_Reglist
                0x03803c24       0x40 C:/devkitPro/libnds/lib\libdswifi7.a(wifi_arm7.o)
                0x03803c24                RF_Reglist
 .data.count_ofs_list
                0x03803c64       0x24 C:/devkitPro/libnds/lib\libdswifi7.a(wifi_arm7.o)
                0x03803c64                count_ofs_list
 .data.sleepIsEnabled
                0x03803c88        0x1 C:/devkitPro/libnds/lib\libnds7.a(system.o)
                0x03803c88                sleepIsEnabled
 .data.range    0x03803c89        0x1 C:/devkitPro/libnds/lib\libnds7.a(touch.o)
 .data.fifo_buffer_free
                0x03803c8a        0x4 C:/devkitPro/libnds/lib\libnds7.a(fifosystem.o)
                0x03803c8a                fifo_buffer_free
 *fill*         0x03803c8e        0x2 
 .data.fifo_freewords
                0x03803c90        0x4 C:/devkitPro/libnds/lib\libnds7.a(fifosystem.o)
                0x03803c90                fifo_freewords
 .data.fifo_receive_queue
                0x03803c94        0x4 C:/devkitPro/libnds/lib\libnds7.a(fifosystem.o)
                0x03803c94                fifo_receive_queue
 .data.fifo_send_queue
                0x03803c98        0x4 C:/devkitPro/libnds/lib\libnds7.a(fifosystem.o)
                0x03803c98                fifo_send_queue
 .data.eightBit
                0x03803c9c        0x1 C:/devkitPro/libnds/lib\libnds7.a(microphone.o)
 *(.gnu.linkonce.d*)
                0x03803ca0                        . = ALIGN (0x4)
 *fill*         0x03803c9d        0x3 
                0x03803ca0                        __data_end = ABSOLUTE (.)

.igot.plt       0x03803ca0        0x0 load address 0x0238be68
 .igot.plt      0x03803ca0        0x0 C:/devkitPro/devkitARM/bin/../lib/gcc/arm-none-eabi/14.1.0/../../../../arm-none-eabi/lib/ds_arm7_crt0.o

.bss            0x03803ca0     0x4438
                0x03803ca0                        __arm7_end__ = .
                0x03803ca0                        __bss_start = ABSOLUTE (.)
                0x03803ca0                        __bss_start__ = ABSOLUTE (.)
 *(.dynbss)
 *(.gnu.linkonce.b*)
 *(.bss*)
 .bss.completed.1
                0x03803ca0        0x1 C:/devkitPro/devkitARM/bin/../lib/gcc/arm-none-eabi/14.1.0/crtbegin.o
 *fill*         0x03803ca1        0x3 
 .bss.object.0  0x03803ca4       0x18 C:/devkitPro/devkitARM/bin/../lib/gcc/arm-none-eabi/14.1.0/crtbegin.o
 .bss           0x03803cbc        0x6 arm7.o
                0x03803cbc                exitflag
                0x03803cc0                rgb565
 *fill*         0x03803cc2        0x2 
 .bss.WifiData  0x03803cc4        0x4 C:/devkitPro/libnds/lib\libdswifi7.a(wifi_arm7.o)
                0x03803cc4                WifiData
 .bss.arm7qlen  0x03803cc8        0x2 C:/devkitPro/libnds/lib\libdswifi7.a(wifi_arm7.o)
                0x03803cc8                arm7qlen
 *fill*         0x03803cca        0x2 
 .bss.chdata_save5
                0x03803ccc        0x4 C:/devkitPro/libnds/lib\libdswifi7.a(wifi_arm7.o)
                0x03803ccc                chdata_save5
 .bss.keepalive_time
                0x03803cd0        0x4 C:/devkitPro/libnds/lib\libdswifi7.a(wifi_arm7.o)
                0x03803cd0                keepalive_time
 .bss.led_state
                0x03803cd4        0x4 C:/devkitPro/libnds/lib\libdswifi7.a(wifi_arm7.o)
                0x03803cd4                led_state
 .bss.scanIndex
                0x03803cd8        0x4 C:/devkitPro/libnds/lib\libdswifi7.a(wifi_arm7.o)
 .bss.synchandler
                0x03803cdc        0x4 C:/devkitPro/libnds/lib\libdswifi7.a(wifi_arm7.o)
                0x03803cdc                synchandler
 .bss           0x03803ce0      0x88d C:/devkitPro/libnds/lib\libmm7.a(mm_main_ds.o)
                0x03803ce0                mmModuleCount
                0x03803ce4                mmModuleBank
                0x03803ce8                mmSampleBank
                0x0380456c                mmInitialized
 *fill*         0x0380456d        0x3 
 .bss           0x03804570      0x148 C:/devkitPro/libnds/lib\libmm7.a(mm_mas.o)
                0x03804570                mmLayerMain
                0x038045a8                mmLayerSub
                0x038045e0                mpp_vars
                0x038045f0                mpp_layerp
                0x038045f4                mpp_channels
                0x03804604                mpp_nchannels
                0x03804605                mpp_clayer
                0x03804608                mm_achannels
                0x0380460c                mm_pchannels
                0x03804610                mm_num_mch
                0x03804614                mm_num_ach
                0x03804618                mm_schannels
 .bss           0x038046b8        0x8 C:/devkitPro/libnds/lib\libmm7.a(mm_main.o)
                0x038046b8                mmCallback
                0x038046bc                mm_ch_mask
 .bss           0x038046c0       0x2d C:/devkitPro/libnds/lib\libmm7.a(mm_effect.o)
                0x038046e4                mm_sfx_bitmask
                0x038046e8                mm_sfx_clearmask
 *fill*         0x038046ed        0x3 
 .bss           0x038046f0     0x2362 C:/devkitPro/libnds/lib\libmm7.a(mm_mixer_super.o)
                0x038046f0                mm_mix_channels
                0x03806a51                mm_mixing_mode
 *fill*         0x03806a52        0x2 
 .bss           0x03806a54      0x10c C:/devkitPro/libnds/lib\libmm7.a(mm_comms7.o)
 .bss           0x03806b60       0x2c C:/devkitPro/libnds/lib\libmm7.a(mm_stream.o)
 .bss           0x03806b8c        0x6 C:/devkitPro/libnds/lib\libmm7.a(mm_reverb.o)
 .bss.__dsimode
                0x03806b92        0x1 C:/devkitPro/libnds/lib\libnds7.a(system.o)
                0x03806b92                __dsimode
 .bss.last_time_touched
                0x03806b93        0x1 C:/devkitPro/libnds/lib\libnds7.a(touch.o)
 .bss.range_counter_1
                0x03806b94        0x1 C:/devkitPro/libnds/lib\libnds7.a(touch.o)
 .bss.range_counter_2
                0x03806b95        0x1 C:/devkitPro/libnds/lib\libnds7.a(touch.o)
 *fill*         0x03806b96        0x2 
 .bss.xoffset   0x03806b98        0x4 C:/devkitPro/libnds/lib\libnds7.a(touch.o)
 .bss.xscale    0x03806b9c        0x4 C:/devkitPro/libnds/lib\libnds7.a(touch.o)
 .bss.yoffset   0x03806ba0        0x4 C:/devkitPro/libnds/lib\libnds7.a(touch.o)
 .bss.yscale    0x03806ba4        0x4 C:/devkitPro/libnds/lib\libnds7.a(touch.o)
 .bss.penDown.1
                0x03806ba8        0x1 C:/devkitPro/libnds/lib\libnds7.a(input.o)
 *fill*         0x03806ba9        0x3 
 .bss.sleepCounter.0
                0x03806bac        0x4 C:/devkitPro/libnds/lib\libnds7.a(input.o)
 .bss.irqTable  0x03806bb0       0xc8 C:/devkitPro/libnds/lib\libnds7.a(interrupts.o)
                0x03806bb0                irqTable
 .bss.fifo_address_data
                0x03806c78       0x40 C:/devkitPro/libnds/lib\libnds7.a(fifosystem.o)
                0x03806c78                fifo_address_data
 .bss.fifo_address_func
                0x03806cb8       0x40 C:/devkitPro/libnds/lib\libnds7.a(fifosystem.o)
                0x03806cb8                fifo_address_func
 .bss.fifo_address_queue
                0x03806cf8       0x40 C:/devkitPro/libnds/lib\libnds7.a(fifosystem.o)
                0x03806cf8                fifo_address_queue
 .bss.fifo_buffer
                0x03806d38      0x800 C:/devkitPro/libnds/lib\libnds7.a(fifosystem.o)
                0x03806d38                fifo_buffer
 .bss.fifo_data_queue
                0x03807538       0x40 C:/devkitPro/libnds/lib\libnds7.a(fifosystem.o)
                0x03807538                fifo_data_queue
 .bss.fifo_datamsg_data
                0x03807578       0x40 C:/devkitPro/libnds/lib\libnds7.a(fifosystem.o)
                0x03807578                fifo_datamsg_data
 .bss.fifo_datamsg_func
                0x038075b8       0x40 C:/devkitPro/libnds/lib\libnds7.a(fifosystem.o)
                0x038075b8                fifo_datamsg_func
 .bss.fifo_value32_data
                0x038075f8       0x40 C:/devkitPro/libnds/lib\libnds7.a(fifosystem.o)
                0x038075f8                fifo_value32_data
 .bss.fifo_value32_func
                0x03807638       0x40 C:/devkitPro/libnds/lib\libnds7.a(fifosystem.o)
                0x03807638                fifo_value32_func
 .bss.fifo_value32_queue
                0x03807678       0x40 C:/devkitPro/libnds/lib\libnds7.a(fifosystem.o)
                0x03807678                fifo_value32_queue
 .bss.processing
                0x038076b8        0x4 C:/devkitPro/libnds/lib\libnds7.a(fifosystem.o)
                0x038076b8                processing
 .bss.micTimer  0x038076bc        0x4 C:/devkitPro/libnds/lib\libnds7.a(microphone.o)
 .bss.microphone_back_buffer
                0x038076c0        0x4 C:/devkitPro/libnds/lib\libnds7.a(microphone.o)
 .bss.microphone_buffer_length
                0x038076c4        0x4 C:/devkitPro/libnds/lib\libnds7.a(microphone.o)
 .bss.microphone_front_buffer
                0x038076c8        0x4 C:/devkitPro/libnds/lib\libnds7.a(microphone.o)
 .bss.sampleCount
                0x038076cc        0x4 C:/devkitPro/libnds/lib\libnds7.a(microphone.o)
 .bss.swapCallback
                0x038076d0        0x4 C:/devkitPro/libnds/lib\libnds7.a(microphone.o)
 .bss           0x038076d4        0x2 C:\devkitPro\libcamera/lib\libcamera7.a(cam_ops.o)
                0x038076d4                ACTIVE_CAM
                0x038076d5                COARSE_INTEGRATION_TIME
 *(COMMON)
 COMMON         0x038076d6      0xa02 C:/devkitPro/libnds/lib\libdswifi7.a(wifi_arm7.o)
                0x038076d6                arm7q
                0x03807ed6                FlashData
                0x038080d6                beacon_channel
                0x038080d8                        . = ALIGN (0x4)
                0x038080d8                        __bss_end__ = ABSOLUTE (.)
                0x038080d8                        __end__ = ABSOLUTE (.)

.stab
 *(.stab)

.stabstr
 *(.stabstr)

.stab.excl
 *(.stab.excl)

.stab.exclstr
 *(.stab.exclstr)

.stab.index
 *(.stab.index)

.stab.indexstr
 *(.stab.indexstr)

.comment        0x00000000       0x8b
 *(.comment)
 .comment       0x00000000       0x8b C:/devkitPro/devkitARM/bin/../lib/gcc/arm-none-eabi/14.1.0/crtbegin.o
                                 0x24 (size before relaxing)
 .comment       0x0000008b       0x24 arm7.o
 .comment       0x0000008b       0x23 C:/devkitPro/libnds/lib\libdswifi7.a(wifi_arm7.o)
 .comment       0x0000008b       0x24 C:/devkitPro/libnds/lib\libnds7.a(system.o)
 .comment       0x0000008b       0x24 C:/devkitPro/libnds/lib\libnds7.a(touch.o)
 .comment       0x0000008b       0x24 C:/devkitPro/libnds/lib\libnds7.a(clock.o)
 .comment       0x0000008b       0x24 C:/devkitPro/libnds/lib\libnds7.a(codec.twl.o)
 .comment       0x0000008b       0x24 C:/devkitPro/libnds/lib\libnds7.a(audio.o)
 .comment       0x0000008b       0x24 C:/devkitPro/libnds/lib\libnds7.a(spi.o)
 .comment       0x0000008b       0x24 C:/devkitPro/libnds/lib\libnds7.a(firmware.o)
 .comment       0x0000008b       0x24 C:/devkitPro/libnds/lib\libnds7.a(userSettings.o)
 .comment       0x0000008b       0x24 C:/devkitPro/libnds/lib\libnds7.a(card.twl.o)
 .comment       0x0000008b       0x24 C:/devkitPro/libnds/lib\libnds7.a(input.o)
 .comment       0x0000008b       0x24 C:/devkitPro/libnds/lib\libnds7.a(interrupts.o)
 .comment       0x0000008b       0x24 C:/devkitPro/libnds/lib\libnds7.a(libnds_exit.arm.o)
 .comment       0x0000008b       0x24 C:/devkitPro/libnds/lib\libnds7.a(fifosystem.o)
 .comment       0x0000008b       0x24 C:/devkitPro/libnds/lib\libnds7.a(i2c.twl.o)
 .comment       0x0000008b       0x24 C:/devkitPro/libnds/lib\libnds7.a(sdmmc.twl.o)
 .comment       0x0000008b       0x24 C:/devkitPro/libnds/lib\libnds7.a(microphone.o)
 .comment       0x0000008b       0x24 C:/devkitPro/libnds/lib\libnds7.a(microphone.twl.o)
 .comment       0x0000008b       0x24 C:/devkitPro/libnds/lib\libnds7.a(systemShutDown.o)
 .comment       0x0000008b       0x24 C:\devkitPro\libcamera/lib\libcamera7.a(cam7.o)
 .comment       0x0000008b       0x24 C:\devkitPro\libcamera/lib\libcamera7.a(cam_ops.o)
 .comment       0x0000008b       0x24 C:\devkitPro\libcamera/lib\libcamera7.a(cam_i2c.o)
 .comment       0x0000008b       0x24 C:/devkitPro/devkitARM/bin/../lib/gcc/arm-none-eabi/14.1.0/../../../../arm-none-eabi/lib\libg.a(libc_a-memcmp.o)
 .comment       0x0000008b       0x24 C:/devkitPro/devkitARM/bin/../lib/gcc/arm-none-eabi/14.1.0/../../../../arm-none-eabi/lib\libg.a(libc_a-memcpy-stub.o)
 .comment       0x0000008b       0x24 C:/devkitPro/devkitARM/bin/../lib/gcc/arm-none-eabi/14.1.0/../../../../arm-none-eabi/lib\libg.a(libc_a-memset.o)
 .comment       0x0000008b       0x24 C:/devkitPro/devkitARM/bin/../lib/gcc/arm-none-eabi/14.1.0/../../../../arm-none-eabi/lib\libg.a(libc_a-init.o)
 .comment       0x0000008b       0x24 C:/devkitPro/devkitARM/bin/../lib/gcc/arm-none-eabi/14.1.0/crtend.o

.ARM.attributes
                0x00000000       0x26
 .ARM.attributes
                0x00000000       0x1a C:/devkitPro/devkitARM/bin/../lib/gcc/arm-none-eabi/14.1.0/../../../../arm-none-eabi/lib/ds_arm7_crt0.o
 .ARM.attributes
                0x0000001a       0x1c C:/devkitPro/devkitARM/bin/../lib/gcc/arm-none-eabi/14.1.0/crti.o
 .ARM.attributes
                0x00000036       0x2a C:/devkitPro/devkitARM/bin/../lib/gcc/arm-none-eabi/14.1.0/crtbegin.o
 .ARM.attributes
                0x00000060       0x26 arm7.o
 .ARM.attributes
                0x00000086       0x26 C:/devkitPro/libnds/lib\libdswifi7.a(wifi_arm7.o)
 .ARM.attributes
                0x000000ac       0x20 C:/devkitPro/libnds/lib\libdswifi7.a(spinlock.o)
 .ARM.attributes
                0x000000cc       0x1a C:/devkitPro/libnds/lib\libmm7.a(mm_main_ds.o)
 .ARM.attributes
                0x000000e6       0x1a C:/devkitPro/libnds/lib\libmm7.a(mm_mas.o)
 .ARM.attributes
                0x00000100       0x1a C:/devkitPro/libnds/lib\libmm7.a(mm_main.o)
 .ARM.attributes
                0x0000011a       0x1a C:/devkitPro/libnds/lib\libmm7.a(mm_effect.o)
 .ARM.attributes
                0x00000134       0x1a C:/devkitPro/libnds/lib\libmm7.a(mm_mas_arm.o)
 .ARM.attributes
                0x0000014e       0x1a C:/devkitPro/libnds/lib\libmm7.a(mm_mixer_super.o)
 .ARM.attributes
                0x00000168       0x1a C:/devkitPro/libnds/lib\libmm7.a(mm_comms7.o)
 .ARM.attributes
                0x00000182       0x1a C:/devkitPro/libnds/lib\libmm7.a(mm_stream.o)
 .ARM.attributes
                0x0000019c       0x1a C:/devkitPro/libnds/lib\libmm7.a(mm_reverb.o)
 .ARM.attributes
                0x000001b6       0x26 C:/devkitPro/libnds/lib\libnds7.a(system.o)
 .ARM.attributes
                0x000001dc       0x26 C:/devkitPro/libnds/lib\libnds7.a(touch.o)
 .ARM.attributes
                0x00000202       0x26 C:/devkitPro/libnds/lib\libnds7.a(clock.o)
 .ARM.attributes
                0x00000228       0x26 C:/devkitPro/libnds/lib\libnds7.a(codec.twl.o)
 .ARM.attributes
                0x0000024e       0x26 C:/devkitPro/libnds/lib\libnds7.a(audio.o)
 .ARM.attributes
                0x00000274       0x26 C:/devkitPro/libnds/lib\libnds7.a(spi.o)
 .ARM.attributes
                0x0000029a       0x26 C:/devkitPro/libnds/lib\libnds7.a(firmware.o)
 .ARM.attributes
                0x000002c0       0x26 C:/devkitPro/libnds/lib\libnds7.a(userSettings.o)
 .ARM.attributes
                0x000002e6       0x26 C:/devkitPro/libnds/lib\libnds7.a(card.twl.o)
 .ARM.attributes
                0x0000030c       0x26 C:/devkitPro/libnds/lib\libnds7.a(input.o)
 .ARM.attributes
                0x00000332       0x26 C:/devkitPro/libnds/lib\libnds7.a(interrupts.o)
 .ARM.attributes
                0x00000358       0x26 C:/devkitPro/libnds/lib\libnds7.a(libnds_exit.arm.o)
 .ARM.attributes
                0x0000037e       0x26 C:/devkitPro/libnds/lib\libnds7.a(fifosystem.o)
 .ARM.attributes
                0x000003a4       0x20 C:/devkitPro/libnds/lib\libnds7.a(intrwait.o)
 .ARM.attributes
                0x000003c4       0x1a C:/devkitPro/libnds/lib\libnds7.a(interruptDispatcher.o)
 .ARM.attributes
                0x000003de       0x1a C:/devkitPro/libnds/lib\libnds7.a(biosCalls.o)
 .ARM.attributes
                0x000003f8       0x1a C:/devkitPro/libnds/lib\libnds7.a(swiSoftReset.o)
 .ARM.attributes
                0x00000412       0x26 C:/devkitPro/libnds/lib\libnds7.a(i2c.twl.o)
 .ARM.attributes
                0x00000438       0x26 C:/devkitPro/libnds/lib\libnds7.a(sdmmc.twl.o)
 .ARM.attributes
                0x0000045e       0x26 C:/devkitPro/libnds/lib\libnds7.a(microphone.o)
 .ARM.attributes
                0x00000484       0x26 C:/devkitPro/libnds/lib\libnds7.a(microphone.twl.o)
 .ARM.attributes
                0x000004aa       0x26 C:/devkitPro/libnds/lib\libnds7.a(systemShutDown.o)
 .ARM.attributes
                0x000004d0       0x26 C:\devkitPro\libcamera/lib\libcamera7.a(cam7.o)
 .ARM.attributes
                0x000004f6       0x26 C:\devkitPro\libcamera/lib\libcamera7.a(cam_ops.o)
 .ARM.attributes
                0x0000051c       0x26 C:\devkitPro\libcamera/lib\libcamera7.a(cam_i2c.o)
 .ARM.attributes
                0x00000542       0x1c C:/devkitPro/devkitARM/bin/../lib/gcc/arm-none-eabi/14.1.0\libgcc.a(_thumb1_case_uqi.o)
 .ARM.attributes
                0x0000055e       0x1c C:/devkitPro/devkitARM/bin/../lib/gcc/arm-none-eabi/14.1.0\libgcc.a(_udivsi3.o)
 .ARM.attributes
                0x0000057a       0x1c C:/devkitPro/devkitARM/bin/../lib/gcc/arm-none-eabi/14.1.0\libgcc.a(_divsi3.o)
 .ARM.attributes
                0x00000596       0x1c C:/devkitPro/devkitARM/bin/../lib/gcc/arm-none-eabi/14.1.0\libgcc.a(_dvmd_tls.o)
 .ARM.attributes
                0x000005b2       0x1c C:/devkitPro/devkitARM/bin/../lib/gcc/arm-none-eabi/14.1.0\libgcc.a(_call_via_rX.o)
 .ARM.attributes
                0x000005ce       0x2a C:/devkitPro/devkitARM/bin/../lib/gcc/arm-none-eabi/14.1.0/../../../../arm-none-eabi/lib\libg.a(libc_a-memcmp.o)
 .ARM.attributes
                0x000005f8       0x2a C:/devkitPro/devkitARM/bin/../lib/gcc/arm-none-eabi/14.1.0/../../../../arm-none-eabi/lib\libg.a(libc_a-memcpy-stub.o)
 .ARM.attributes
                0x00000622       0x2a C:/devkitPro/devkitARM/bin/../lib/gcc/arm-none-eabi/14.1.0/../../../../arm-none-eabi/lib\libg.a(libc_a-memset.o)
 .ARM.attributes
                0x0000064c       0x2a C:/devkitPro/devkitARM/bin/../lib/gcc/arm-none-eabi/14.1.0/../../../../arm-none-eabi/lib\libg.a(libc_a-init.o)
 .ARM.attributes
                0x00000676       0x2a C:/devkitPro/devkitARM/bin/../lib/gcc/arm-none-eabi/14.1.0/crtend.o
 .ARM.attributes
                0x000006a0       0x1c C:/devkitPro/devkitARM/bin/../lib/gcc/arm-none-eabi/14.1.0/crtn.o

.debug
 *(.debug)

.line
 *(.line)

.debug_srcinfo
 *(.debug_srcinfo)

.debug_sfnames
 *(.debug_sfnames)

.debug_aranges  0x00000000      0xa18
 *(.debug_aranges)
 .debug_aranges
                0x00000000       0x28 arm7.o
 .debug_aranges
                0x00000028      0x220 C:/devkitPro/libnds/lib\libdswifi7.a(wifi_arm7.o)
 .debug_aranges
                0x00000248       0x20 C:/devkitPro/libnds/lib\libdswifi7.a(spinlock.o)
 .debug_aranges
                0x00000268       0x48 C:/devkitPro/libnds/lib\libnds7.a(system.o)
 .debug_aranges
                0x000002b0       0x68 C:/devkitPro/libnds/lib\libnds7.a(touch.o)
 .debug_aranges
                0x00000318       0x70 C:/devkitPro/libnds/lib\libnds7.a(clock.o)
 .debug_aranges
                0x00000388       0x70 C:/devkitPro/libnds/lib\libnds7.a(codec.twl.o)
 .debug_aranges
                0x000003f8       0x60 C:/devkitPro/libnds/lib\libnds7.a(audio.o)
 .debug_aranges
                0x00000458       0x28 C:/devkitPro/libnds/lib\libnds7.a(spi.o)
 .debug_aranges
                0x00000480       0x40 C:/devkitPro/libnds/lib\libnds7.a(firmware.o)
 .debug_aranges
                0x000004c0       0x20 C:/devkitPro/libnds/lib\libnds7.a(userSettings.o)
 .debug_aranges
                0x000004e0       0x28 C:/devkitPro/libnds/lib\libnds7.a(card.twl.o)
 .debug_aranges
                0x00000508       0x20 C:/devkitPro/libnds/lib\libnds7.a(input.o)
 .debug_aranges
                0x00000528       0x90 C:/devkitPro/libnds/lib\libnds7.a(interrupts.o)
 .debug_aranges
                0x000005b8       0x28 C:/devkitPro/libnds/lib\libnds7.a(libnds_exit.arm.o)
 .debug_aranges
                0x000005e0       0xc0 C:/devkitPro/libnds/lib\libnds7.a(fifosystem.o)
 .debug_aranges
                0x000006a0       0x28 C:/devkitPro/libnds/lib\libnds7.a(intrwait.o)
 .debug_aranges
                0x000006c8       0x20 C:/devkitPro/libnds/lib\libnds7.a(interruptDispatcher.o)
 .debug_aranges
                0x000006e8       0xd8 C:/devkitPro/libnds/lib\libnds7.a(biosCalls.o)
 .debug_aranges
                0x000007c0       0x20 C:/devkitPro/libnds/lib\libnds7.a(swiSoftReset.o)
 .debug_aranges
                0x000007e0       0x68 C:/devkitPro/libnds/lib\libnds7.a(i2c.twl.o)
 .debug_aranges
                0x00000848       0xb8 C:/devkitPro/libnds/lib\libnds7.a(sdmmc.twl.o)
 .debug_aranges
                0x00000900       0x70 C:/devkitPro/libnds/lib\libnds7.a(microphone.o)
 .debug_aranges
                0x00000970       0x28 C:/devkitPro/libnds/lib\libnds7.a(microphone.twl.o)
 .debug_aranges
                0x00000998       0x20 C:/devkitPro/libnds/lib\libnds7.a(systemShutDown.o)
 .debug_aranges
                0x000009b8       0x20 C:\devkitPro\libcamera/lib\libcamera7.a(cam7.o)
 .debug_aranges
                0x000009d8       0x20 C:\devkitPro\libcamera/lib\libcamera7.a(cam_ops.o)
 .debug_aranges
                0x000009f8       0x20 C:\devkitPro\libcamera/lib\libcamera7.a(cam_i2c.o)

.debug_pubnames
 *(.debug_pubnames)

.debug_info     0x00000000    0x117e1
 *(.debug_info)
 .debug_info    0x00000000      0x821 arm7.o
 .debug_info    0x00000821     0x32e7 C:/devkitPro/libnds/lib\libdswifi7.a(wifi_arm7.o)
 .debug_info    0x00003b08       0x26 C:/devkitPro/libnds/lib\libdswifi7.a(spinlock.o)
 .debug_info    0x00003b2e      0x936 C:/devkitPro/libnds/lib\libnds7.a(system.o)
 .debug_info    0x00004464     0x12e4 C:/devkitPro/libnds/lib\libnds7.a(touch.o)
 .debug_info    0x00005748      0xb4b C:/devkitPro/libnds/lib\libnds7.a(clock.o)
 .debug_info    0x00006293      0x754 C:/devkitPro/libnds/lib\libnds7.a(codec.twl.o)
 .debug_info    0x000069e7      0xb0a C:/devkitPro/libnds/lib\libnds7.a(audio.o)
 .debug_info    0x000074f1      0x2ba C:/devkitPro/libnds/lib\libnds7.a(spi.o)
 .debug_info    0x000077ab      0xa69 C:/devkitPro/libnds/lib\libnds7.a(firmware.o)
 .debug_info    0x00008214      0x593 C:/devkitPro/libnds/lib\libnds7.a(userSettings.o)
 .debug_info    0x000087a7      0x272 C:/devkitPro/libnds/lib\libnds7.a(card.twl.o)
 .debug_info    0x00008a19      0x5c8 C:/devkitPro/libnds/lib\libnds7.a(input.o)
 .debug_info    0x00008fe1      0xca1 C:/devkitPro/libnds/lib\libnds7.a(interrupts.o)
 .debug_info    0x00009c82      0x2d1 C:/devkitPro/libnds/lib\libnds7.a(libnds_exit.arm.o)
 .debug_info    0x00009f53     0x141c C:/devkitPro/libnds/lib\libnds7.a(fifosystem.o)
 .debug_info    0x0000b36f       0x23 C:/devkitPro/libnds/lib\libnds7.a(intrwait.o)
 .debug_info    0x0000b392       0x25 C:/devkitPro/libnds/lib\libnds7.a(interruptDispatcher.o)
 .debug_info    0x0000b3b7       0x23 C:/devkitPro/libnds/lib\libnds7.a(biosCalls.o)
 .debug_info    0x0000b3da       0x24 C:/devkitPro/libnds/lib\libnds7.a(swiSoftReset.o)
 .debug_info    0x0000b3fe      0x468 C:/devkitPro/libnds/lib\libnds7.a(i2c.twl.o)
 .debug_info    0x0000b866     0x2288 C:/devkitPro/libnds/lib\libnds7.a(sdmmc.twl.o)
 .debug_info    0x0000daee      0xe18 C:/devkitPro/libnds/lib\libnds7.a(microphone.o)
 .debug_info    0x0000e906      0x3b7 C:/devkitPro/libnds/lib\libnds7.a(microphone.twl.o)
 .debug_info    0x0000ecbd      0x29a C:/devkitPro/libnds/lib\libnds7.a(systemShutDown.o)
 .debug_info    0x0000ef57      0x36a C:\devkitPro\libcamera/lib\libcamera7.a(cam7.o)
 .debug_info    0x0000f2c1     0x20cf C:\devkitPro\libcamera/lib\libcamera7.a(cam_ops.o)
 .debug_info    0x00011390      0x451 C:\devkitPro\libcamera/lib\libcamera7.a(cam_i2c.o)

.debug_abbrev   0x00000000     0x3dd6
 *(.debug_abbrev)
 .debug_abbrev  0x00000000      0x307 arm7.o
 .debug_abbrev  0x00000307      0x65b C:/devkitPro/libnds/lib\libdswifi7.a(wifi_arm7.o)
 .debug_abbrev  0x00000962       0x14 C:/devkitPro/libnds/lib\libdswifi7.a(spinlock.o)
 .debug_abbrev  0x00000976      0x28c C:/devkitPro/libnds/lib\libnds7.a(system.o)
 .debug_abbrev  0x00000c02      0x476 C:/devkitPro/libnds/lib\libnds7.a(touch.o)
 .debug_abbrev  0x00001078      0x2cb C:/devkitPro/libnds/lib\libnds7.a(clock.o)
 .debug_abbrev  0x00001343      0x201 C:/devkitPro/libnds/lib\libnds7.a(codec.twl.o)
 .debug_abbrev  0x00001544      0x2f7 C:/devkitPro/libnds/lib\libnds7.a(audio.o)
 .debug_abbrev  0x0000183b      0x1a7 C:/devkitPro/libnds/lib\libnds7.a(spi.o)
 .debug_abbrev  0x000019e2      0x335 C:/devkitPro/libnds/lib\libnds7.a(firmware.o)
 .debug_abbrev  0x00001d17      0x163 C:/devkitPro/libnds/lib\libnds7.a(userSettings.o)
 .debug_abbrev  0x00001e7a      0x131 C:/devkitPro/libnds/lib\libnds7.a(card.twl.o)
 .debug_abbrev  0x00001fab      0x213 C:/devkitPro/libnds/lib\libnds7.a(input.o)
 .debug_abbrev  0x000021be      0x3a8 C:/devkitPro/libnds/lib\libnds7.a(interrupts.o)
 .debug_abbrev  0x00002566      0x15d C:/devkitPro/libnds/lib\libnds7.a(libnds_exit.arm.o)
 .debug_abbrev  0x000026c3      0x4bc C:/devkitPro/libnds/lib\libnds7.a(fifosystem.o)
 .debug_abbrev  0x00002b7f       0x12 C:/devkitPro/libnds/lib\libnds7.a(intrwait.o)
 .debug_abbrev  0x00002b91       0x14 C:/devkitPro/libnds/lib\libnds7.a(interruptDispatcher.o)
 .debug_abbrev  0x00002ba5       0x12 C:/devkitPro/libnds/lib\libnds7.a(biosCalls.o)
 .debug_abbrev  0x00002bb7       0x14 C:/devkitPro/libnds/lib\libnds7.a(swiSoftReset.o)
 .debug_abbrev  0x00002bcb      0x22b C:/devkitPro/libnds/lib\libnds7.a(i2c.twl.o)
 .debug_abbrev  0x00002df6      0x4ce C:/devkitPro/libnds/lib\libnds7.a(sdmmc.twl.o)
 .debug_abbrev  0x000032c4      0x320 C:/devkitPro/libnds/lib\libnds7.a(microphone.o)
 .debug_abbrev  0x000035e4      0x169 C:/devkitPro/libnds/lib\libnds7.a(microphone.twl.o)
 .debug_abbrev  0x0000374d      0x136 C:/devkitPro/libnds/lib\libnds7.a(systemShutDown.o)
 .debug_abbrev  0x00003883      0x177 C:\devkitPro\libcamera/lib\libcamera7.a(cam7.o)
 .debug_abbrev  0x000039fa      0x27e C:\devkitPro\libcamera/lib\libcamera7.a(cam_ops.o)
 .debug_abbrev  0x00003c78      0x15e C:\devkitPro\libcamera/lib\libcamera7.a(cam_i2c.o)

.debug_line     0x00000000     0xc457
 *(.debug_line)
 .debug_line    0x00000000      0x544 arm7.o
 .debug_line    0x00000544     0x3380 C:/devkitPro/libnds/lib\libdswifi7.a(wifi_arm7.o)
 .debug_line    0x000038c4       0xa0 C:/devkitPro/libnds/lib\libdswifi7.a(spinlock.o)
 .debug_line    0x00003964      0x513 C:/devkitPro/libnds/lib\libnds7.a(system.o)
 .debug_line    0x00003e77      0xb43 C:/devkitPro/libnds/lib\libnds7.a(touch.o)
 .debug_line    0x000049ba      0x7ea C:/devkitPro/libnds/lib\libnds7.a(clock.o)
 .debug_line    0x000051a4      0x650 C:/devkitPro/libnds/lib\libnds7.a(codec.twl.o)
 .debug_line    0x000057f4      0x649 C:/devkitPro/libnds/lib\libnds7.a(audio.o)
 .debug_line    0x00005e3d      0x2cc C:/devkitPro/libnds/lib\libnds7.a(spi.o)
 .debug_line    0x00006109      0x5e0 C:/devkitPro/libnds/lib\libnds7.a(firmware.o)
 .debug_line    0x000066e9      0x2b7 C:/devkitPro/libnds/lib\libnds7.a(userSettings.o)
 .debug_line    0x000069a0      0x34a C:/devkitPro/libnds/lib\libnds7.a(card.twl.o)
 .debug_line    0x00006cea      0x30d C:/devkitPro/libnds/lib\libnds7.a(input.o)
 .debug_line    0x00006ff7      0x83e C:/devkitPro/libnds/lib\libnds7.a(interrupts.o)
 .debug_line    0x00007835      0x20f C:/devkitPro/libnds/lib\libnds7.a(libnds_exit.arm.o)
 .debug_line    0x00007a44      0xffb C:/devkitPro/libnds/lib\libnds7.a(fifosystem.o)
 .debug_line    0x00008a3f       0x6b C:/devkitPro/libnds/lib\libnds7.a(intrwait.o)
 .debug_line    0x00008aaa       0x86 C:/devkitPro/libnds/lib\libnds7.a(interruptDispatcher.o)
 .debug_line    0x00008b30      0x1d3 C:/devkitPro/libnds/lib\libnds7.a(biosCalls.o)
 .debug_line    0x00008d03       0x50 C:/devkitPro/libnds/lib\libnds7.a(swiSoftReset.o)
 .debug_line    0x00008d53      0x48f C:/devkitPro/libnds/lib\libnds7.a(i2c.twl.o)
 .debug_line    0x000091e2     0x14cc C:/devkitPro/libnds/lib\libnds7.a(sdmmc.twl.o)
 .debug_line    0x0000a6ae      0x790 C:/devkitPro/libnds/lib\libnds7.a(microphone.o)
 .debug_line    0x0000ae3e      0x2f5 C:/devkitPro/libnds/lib\libnds7.a(microphone.twl.o)
 .debug_line    0x0000b133      0x238 C:/devkitPro/libnds/lib\libnds7.a(systemShutDown.o)
 .debug_line    0x0000b36b      0x1dd C:\devkitPro\libcamera/lib\libcamera7.a(cam7.o)
 .debug_line    0x0000b548      0x96a C:\devkitPro\libcamera/lib\libcamera7.a(cam_ops.o)
 .debug_line    0x0000beb2      0x5a5 C:\devkitPro\libcamera/lib\libcamera7.a(cam_i2c.o)

.debug_frame    0x00000000     0x1a7c
 *(.debug_frame)
 .debug_frame   0x00000000       0x94 arm7.o
 .debug_frame   0x00000094      0x758 C:/devkitPro/libnds/lib\libdswifi7.a(wifi_arm7.o)
 .debug_frame   0x000007ec       0xa0 C:/devkitPro/libnds/lib\libnds7.a(system.o)
 .debug_frame   0x0000088c      0x128 C:/devkitPro/libnds/lib\libnds7.a(touch.o)
 .debug_frame   0x000009b4      0x15c C:/devkitPro/libnds/lib\libnds7.a(clock.o)
 .debug_frame   0x00000b10      0x140 C:/devkitPro/libnds/lib\libnds7.a(codec.twl.o)
 .debug_frame   0x00000c50       0xe4 C:/devkitPro/libnds/lib\libnds7.a(audio.o)
 .debug_frame   0x00000d34       0x44 C:/devkitPro/libnds/lib\libnds7.a(spi.o)
 .debug_frame   0x00000d78       0x9c C:/devkitPro/libnds/lib\libnds7.a(firmware.o)
 .debug_frame   0x00000e14       0x34 C:/devkitPro/libnds/lib\libnds7.a(userSettings.o)
 .debug_frame   0x00000e48       0x50 C:/devkitPro/libnds/lib\libnds7.a(card.twl.o)
 .debug_frame   0x00000e98       0x30 C:/devkitPro/libnds/lib\libnds7.a(input.o)
 .debug_frame   0x00000ec8      0x170 C:/devkitPro/libnds/lib\libnds7.a(interrupts.o)
 .debug_frame   0x00001038       0x38 C:/devkitPro/libnds/lib\libnds7.a(libnds_exit.arm.o)
 .debug_frame   0x00001070      0x268 C:/devkitPro/libnds/lib\libnds7.a(fifosystem.o)
 .debug_frame   0x000012d8      0x104 C:/devkitPro/libnds/lib\libnds7.a(i2c.twl.o)
 .debug_frame   0x000013dc      0x20c C:/devkitPro/libnds/lib\libnds7.a(sdmmc.twl.o)
 .debug_frame   0x000015e8      0x140 C:/devkitPro/libnds/lib\libnds7.a(microphone.o)
 .debug_frame   0x00001728       0x44 C:/devkitPro/libnds/lib\libnds7.a(microphone.twl.o)
 .debug_frame   0x0000176c       0x28 C:/devkitPro/libnds/lib\libnds7.a(systemShutDown.o)
 .debug_frame   0x00001794       0x7c C:\devkitPro\libcamera/lib\libcamera7.a(cam7.o)
 .debug_frame   0x00001810      0x1f8 C:\devkitPro\libcamera/lib\libcamera7.a(cam_ops.o)
 .debug_frame   0x00001a08       0x74 C:\devkitPro\libcamera/lib\libcamera7.a(cam_i2c.o)

.debug_str      0x00000000     0x3e36
 *(.debug_str)
 .debug_str     0x00000000     0x3e36 arm7.o
                                0x5d7 (size before relaxing)
 .debug_str     0x00003e36     0x130f C:/devkitPro/libnds/lib\libdswifi7.a(wifi_arm7.o)
 .debug_str     0x00003e36       0xae C:/devkitPro/libnds/lib\libdswifi7.a(spinlock.o)
 .debug_str     0x00003e36      0x78e C:/devkitPro/libnds/lib\libnds7.a(system.o)
 .debug_str     0x00003e36      0xb8a C:/devkitPro/libnds/lib\libnds7.a(touch.o)
 .debug_str     0x00003e36      0x5ac C:/devkitPro/libnds/lib\libnds7.a(clock.o)
 .debug_str     0x00003e36      0x363 C:/devkitPro/libnds/lib\libnds7.a(codec.twl.o)
 .debug_str     0x00003e36      0x8ac C:/devkitPro/libnds/lib\libnds7.a(audio.o)
 .debug_str     0x00003e36      0x356 C:/devkitPro/libnds/lib\libnds7.a(spi.o)
 .debug_str     0x00003e36      0x513 C:/devkitPro/libnds/lib\libnds7.a(firmware.o)
 .debug_str     0x00003e36      0x44a C:/devkitPro/libnds/lib\libnds7.a(userSettings.o)
 .debug_str     0x00003e36      0x287 C:/devkitPro/libnds/lib\libnds7.a(card.twl.o)
 .debug_str     0x00003e36      0x55a C:/devkitPro/libnds/lib\libnds7.a(input.o)
 .debug_str     0x00003e36      0x758 C:/devkitPro/libnds/lib\libnds7.a(interrupts.o)
 .debug_str     0x00003e36      0x346 C:/devkitPro/libnds/lib\libnds7.a(libnds_exit.arm.o)
 .debug_str     0x00003e36      0x8c2 C:/devkitPro/libnds/lib\libnds7.a(fifosystem.o)
 .debug_str     0x00003e36       0x6b C:/devkitPro/libnds/lib\libnds7.a(intrwait.o)
 .debug_str     0x00003e36       0x76 C:/devkitPro/libnds/lib\libnds7.a(interruptDispatcher.o)
 .debug_str     0x00003e36       0x6c C:/devkitPro/libnds/lib\libnds7.a(biosCalls.o)
 .debug_str     0x00003e36       0x6f C:/devkitPro/libnds/lib\libnds7.a(swiSoftReset.o)
 .debug_str     0x00003e36      0x30f C:/devkitPro/libnds/lib\libnds7.a(i2c.twl.o)
 .debug_str     0x00003e36      0x89e C:/devkitPro/libnds/lib\libnds7.a(sdmmc.twl.o)
 .debug_str     0x00003e36      0xaac C:/devkitPro/libnds/lib\libnds7.a(microphone.o)
 .debug_str     0x00003e36      0x3af C:/devkitPro/libnds/lib\libnds7.a(microphone.twl.o)
 .debug_str     0x00003e36      0x40f C:/devkitPro/libnds/lib\libnds7.a(systemShutDown.o)
 .debug_str     0x00003e36      0x28a C:\devkitPro\libcamera/lib\libcamera7.a(cam7.o)
 .debug_str     0x00003e36      0x2c9 C:\devkitPro\libcamera/lib\libcamera7.a(cam_ops.o)
 .debug_str     0x00003e36      0x252 C:\devkitPro\libcamera/lib\libcamera7.a(cam_i2c.o)

.debug_loc      0x00000000     0x299c
 *(.debug_loc)
 .debug_loc     0x00000000     0x299c C:/devkitPro/libnds/lib\libdswifi7.a(wifi_arm7.o)

.debug_macinfo
 *(.debug_macinfo)

.debug_weaknames
 *(.debug_weaknames)

.debug_funcnames
 *(.debug_funcnames)

.debug_typenames
 *(.debug_typenames)

.debug_varnames
 *(.debug_varnames)
LOAD C:/devkitPro/devkitARM/bin/../lib/gcc/arm-none-eabi/14.1.0/../../../../arm-none-eabi/lib/ds_arm7_crt0.o
LOAD C:/devkitPro/devkitARM/bin/../lib/gcc/arm-none-eabi/14.1.0/crti.o
LOAD C:/devkitPro/devkitARM/bin/../lib/gcc/arm-none-eabi/14.1.0/crtbegin.o
LOAD arm7.o
LOAD C:/devkitPro/libnds/lib\libdswifi7.a
LOAD C:/devkitPro/libnds/lib\libmm7.a
LOAD C:/devkitPro/libnds/lib\libnds7.a
LOAD C:\devkitPro\libcamera/lib\libcamera7.a
START GROUP
LOAD C:/devkitPro/devkitARM/bin/../lib/gcc/arm-none-eabi/14.1.0\libgcc.a
LOAD C:/devkitPro/devkitARM/bin/../lib/gcc/arm-none-eabi/14.1.0/../../../../arm-none-eabi/lib\libg.a
LOAD C:/devkitPro/devkitARM/bin/../lib/gcc/arm-none-eabi/14.1.0/../../../../arm-none-eabi/lib\libc.a
LOAD C:/devkitPro/devkitARM/bin/../lib/gcc/arm-none-eabi/14.1.0/../../../../arm-none-eabi/lib\libsysbase.a
END GROUP
LOAD C:/devkitPro/devkitARM/bin/../lib/gcc/arm-none-eabi/14.1.0/crtend.o
LOAD C:/devkitPro/devkitARM/bin/../lib/gcc/arm-none-eabi/14.1.0/crtn.o
OUTPUT(C:/Users/sxysm/Documents/ee327/ds-app/arm7/ds-app.elf elf32-littlearm)
LOAD linker stubs

.debug_loclists
                0x00000000     0x4aaa
 .debug_loclists
                0x00000000      0x15a arm7.o
 .debug_loclists
                0x0000015a      0x252 C:/devkitPro/libnds/lib\libnds7.a(system.o)
 .debug_loclists
                0x000003ac      0x7b0 C:/devkitPro/libnds/lib\libnds7.a(touch.o)
 .debug_loclists
                0x00000b5c      0x4d3 C:/devkitPro/libnds/lib\libnds7.a(clock.o)
 .debug_loclists
                0x0000102f      0x328 C:/devkitPro/libnds/lib\libnds7.a(codec.twl.o)
 .debug_loclists
                0x00001357      0x423 C:/devkitPro/libnds/lib\libnds7.a(audio.o)
 .debug_loclists
                0x0000177a       0xb7 C:/devkitPro/libnds/lib\libnds7.a(spi.o)
 .debug_loclists
                0x00001831      0x2b7 C:/devkitPro/libnds/lib\libnds7.a(firmware.o)
 .debug_loclists
                0x00001ae8       0x50 C:/devkitPro/libnds/lib\libnds7.a(userSettings.o)
 .debug_loclists
                0x00001b38       0x76 C:/devkitPro/libnds/lib\libnds7.a(card.twl.o)
 .debug_loclists
                0x00001bae       0x21 C:/devkitPro/libnds/lib\libnds7.a(input.o)
 .debug_loclists
                0x00001bcf      0x315 C:/devkitPro/libnds/lib\libnds7.a(interrupts.o)
 .debug_loclists
                0x00001ee4       0x37 C:/devkitPro/libnds/lib\libnds7.a(libnds_exit.arm.o)
 .debug_loclists
                0x00001f1b      0xacc C:/devkitPro/libnds/lib\libnds7.a(fifosystem.o)
 .debug_loclists
                0x000029e7      0x122 C:/devkitPro/libnds/lib\libnds7.a(i2c.twl.o)
 .debug_loclists
                0x00002b09     0x1033 C:/devkitPro/libnds/lib\libnds7.a(sdmmc.twl.o)
 .debug_loclists
                0x00003b3c      0x247 C:/devkitPro/libnds/lib\libnds7.a(microphone.o)
 .debug_loclists
                0x00003d83       0xd8 C:/devkitPro/libnds/lib\libnds7.a(microphone.twl.o)
 .debug_loclists
                0x00003e5b      0x1dd C:\devkitPro\libcamera/lib\libcamera7.a(cam7.o)
 .debug_loclists
                0x00004038      0x947 C:\devkitPro\libcamera/lib\libcamera7.a(cam_ops.o)
 .debug_loclists
                0x0000497f      0x12b C:\devkitPro\libcamera/lib\libcamera7.a(cam_i2c.o)

.debug_rnglists
                0x00000000      0xb1f
 .debug_rnglists
                0x00000000       0x75 arm7.o
 .debug_rnglists
                0x00000075       0x3e C:/devkitPro/libnds/lib\libnds7.a(system.o)
 .debug_rnglists
                0x000000b3       0x8f C:/devkitPro/libnds/lib\libnds7.a(touch.o)
 .debug_rnglists
                0x00000142       0x51 C:/devkitPro/libnds/lib\libnds7.a(clock.o)
 .debug_rnglists
                0x00000193       0x51 C:/devkitPro/libnds/lib\libnds7.a(codec.twl.o)
 .debug_rnglists
                0x000001e4       0x60 C:/devkitPro/libnds/lib\libnds7.a(audio.o)
 .debug_rnglists
                0x00000244       0x40 C:/devkitPro/libnds/lib\libnds7.a(spi.o)
 .debug_rnglists
                0x00000284       0x70 C:/devkitPro/libnds/lib\libnds7.a(firmware.o)
 .debug_rnglists
                0x000002f4       0x14 C:/devkitPro/libnds/lib\libnds7.a(userSettings.o)
 .debug_rnglists
                0x00000308       0x4f C:/devkitPro/libnds/lib\libnds7.a(card.twl.o)
 .debug_rnglists
                0x00000357       0x14 C:/devkitPro/libnds/lib\libnds7.a(input.o)
 .debug_rnglists
                0x0000036b       0xe8 C:/devkitPro/libnds/lib\libnds7.a(interrupts.o)
 .debug_rnglists
                0x00000453       0x19 C:/devkitPro/libnds/lib\libnds7.a(libnds_exit.arm.o)
 .debug_rnglists
                0x0000046c      0x149 C:/devkitPro/libnds/lib\libnds7.a(fifosystem.o)
 .debug_rnglists
                0x000005b5       0x19 C:/devkitPro/libnds/lib\libnds7.a(intrwait.o)
 .debug_rnglists
                0x000005ce       0x9d C:/devkitPro/libnds/lib\libnds7.a(biosCalls.o)
 .debug_rnglists
                0x0000066b       0x58 C:/devkitPro/libnds/lib\libnds7.a(i2c.twl.o)
 .debug_rnglists
                0x000006c3      0x266 C:/devkitPro/libnds/lib\libnds7.a(sdmmc.twl.o)
 .debug_rnglists
                0x00000929       0xa8 C:/devkitPro/libnds/lib\libnds7.a(microphone.o)
 .debug_rnglists
                0x000009d1       0x1a C:/devkitPro/libnds/lib\libnds7.a(microphone.twl.o)
 .debug_rnglists
                0x000009eb       0x13 C:/devkitPro/libnds/lib\libnds7.a(systemShutDown.o)
 .debug_rnglists
                0x000009fe       0x9f C:\devkitPro\libcamera/lib\libcamera7.a(cam_ops.o)
 .debug_rnglists
                0x00000a9d       0x82 C:\devkitPro\libcamera/lib\libcamera7.a(cam_i2c.o)

.debug_ranges   0x00000000      0x5c0
 .debug_ranges  0x00000000      0x5c0 C:/devkitPro/libnds/lib\libdswifi7.a(wifi_arm7.o)

.debug_line_str
                0x00000000       0xf4
 .debug_line_str
                0x00000000       0xf4 C:/devkitPro/libnds/lib\libnds7.a(intrwait.o)
                                 0xcc (size before relaxing)
 .debug_line_str
                0x000000f4       0xe6 C:/devkitPro/libnds/lib\libnds7.a(interruptDispatcher.o)
 .debug_line_str
                0x000000f4       0xd2 C:/devkitPro/libnds/lib\libnds7.a(biosCalls.o)
 .debug_line_str
                0x000000f4       0xd8 C:/devkitPro/libnds/lib\libnds7.a(swiSoftReset.o)
